(dp1
Vzhenjun hu
p2
(dp3
S'author_id'
p4
ccollections
Counter
p5
((dp6
I2162436920
I10
stRp7
sS'affil_id'
p8
g5
((dp9
I111088046
I10
stRp10
sS'affil_name'
p11
g5
((dp12
Vboston university
p13
I10
stRp14
ssVmats jirstrand
p15
(dp16
g4
g5
((dp17
I1152697354
I7
sI2013087594
I3
stRp18
sg8
g5
((dp19
I161046081
I1
sI4923324
I6
sI102134673
I3
stRp20
sg11
g5
((dp21
Vlinkoping university
p22
I3
sVfraunhofer society
p23
I6
sVuniversity of freiburg
p24
I1
stRp25
ssVguy melancon
p26
(dp27
g4
g5
((dp28
I2238570106
I10
stRp29
sg8
g5
((dp30
I1326498283
I2
sI1294671590
I8
stRp31
sg11
g5
((dp32
Vcentre national de la recherche scientifique
p33
I8
sVfrench institute for research in computer science and automation
p34
I2
stRp35
ssVjanet thornton
p36
(dp37
g4
g5
((dtRp38
sg8
g5
((dtRp39
sg11
g5
((dtRp40
ssVnathan salomonis
p41
(dp42
g4
g5
((dp43
I349940622
I9
sI2567827207
I1
stRp44
sg8
g5
((dp45
I55176711
I1
sI36258959
I1
sI180670191
I2
sI1285204247
I6
stRp46
sg11
g5
((dp47
Vcincinnati children s hospital medical center
p48
I6
sVuniversity of california
p49
I1
sVuniversity of california san francisco
p50
I2
sVuniversity of california san diego
p51
I1
stRp52
ssVtaowei wang
p53
(dp54
g4
g5
((dtRp55
sg8
g5
((dtRp56
sg11
g5
((dtRp57
ssVrodrigo santamar\u005c'ia
p58
(dp59
g4
g5
((dtRp60
sg8
g5
((dtRp61
sg11
g5
((dtRp62
ssVkarl kashofer
p63
(dp64
g4
g5
((dp65
I2597760345
I2
sI2485027799
I8
stRp66
sg8
g5
((dp67
I30147112
I2
sI202276237
I8
stRp68
sg11
g5
((dp69
Vsofia medical university
p70
I2
sVmedical university of graz
p71
I8
stRp72
ssVrobert cohen
p73
(dp74
g4
g5
((dtRp75
sg8
g5
((dtRp76
sg11
g5
((dtRp77
ssVradu jianu
p78
(dp79
g4
g5
((dp80
I785418197
I10
stRp81
sg8
g5
((dp82
I27804330
I7
sI97018004
I1
sI19700959
I2
stRp83
sg11
g5
((dp84
Vstanford university
p85
I1
sVbrown university
p86
I7
sVflorida international university
p87
I2
stRp88
ssVmarkus rohrschneider
p89
(dp90
g4
g5
((dp91
I2087248613
I6
stRp92
sg8
g5
((dp93
I926574661
I6
stRp94
sg11
g5
((dp95
Vleipzig university
p96
I6
stRp97
ssVminoru kanehisa
p98
(dp99
g4
g5
((dp100
I2151300008
I10
stRp101
sg8
g5
((dp102
I22299242
I10
stRp103
sg11
g5
((dp104
Vkyoto university
p105
I10
stRp106
ssVmartin vingron
p107
(dp108
g4
g5
((dp109
I198286669
I10
stRp110
sg8
g5
((dp111
I149899117
I10
stRp112
sg11
g5
((dp113
Vmax planck society
p114
I10
stRp115
ssVwenbin wu
p116
(dp117
g4
g5
((dp118
I2420486752
I3
sI2552101361
I1
sI2110007699
I6
stRp119
sg8
g5
((dp120
I90610280
I3
sI143593769
I3
sI114150738
I2
sI19820366
I1
sNI1
stRp121
sg11
g5
((dp122
Vchinese academy of sciences
p123
I1
sVeast china university of science and technology
p124
I3
sNI1
sVsouth china university of technology
p125
I3
sVfu jen catholic university
p126
I2
stRp127
ssVjoan dimicco
p128
(dp129
g4
g5
((dtRp130
sg8
g5
((dtRp131
sg11
g5
((dtRp132
ssVyanhong wu
p133
(dp134
g4
g5
((dp135
I2142767251
I7
sI2582521644
I1
sI2128423901
I2
stRp136
sg8
g5
((dp137
NI1
sI20231570
I2
sI1330342723
I6
sI19920983
I1
stRp138
sg11
g5
((dp139
Vmayo clinic
p140
I6
sVmayo medical school
p141
I1
sVpeking university
p142
I2
sNI1
stRp143
ssVpeter eades
p144
(dp145
g4
g5
((dp146
I336473884
I10
stRp147
sg8
g5
((dp148
I129604602
I8
sI78757542
I2
stRp149
sg11
g5
((dp150
Vuniversity of sydney
p151
I8
sVuniversity of newcastle
p152
I2
stRp153
ssVosmar zaiane
p154
(dp155
g4
g5
((dtRp156
sg8
g5
((dtRp157
sg11
g5
((dtRp158
ssVmatt huyck
p159
(dp160
g4
g5
((dtRp161
sg8
g5
((dtRp162
sg11
g5
((dtRp163
ssVandre skusa
p164
(dp165
g4
g5
((dp166
I293947347
I7
sI2244128750
I1
sI2013685871
I2
stRp167
sg8
g5
((dp168
I55486353
I2
sI20121455
I7
sNI1
stRp169
sg11
g5
((dp170
NI1
sVbielefeld university
p171
I7
sVreed college
p172
I2
stRp173
ssVev jordan
p174
(dp175
g4
g5
((dp176
I2114219218
I2
stRp177
sg8
g5
((dp178
NI2
stRp179
sg11
g5
((dp180
NI2
stRp181
ssVmichel chaudron
p182
(dp183
g4
g5
((dtRp184
sg8
g5
((dtRp185
sg11
g5
((dtRp186
ssVdavid fuhry
p187
(dp188
g4
g5
((dp189
I2398106800
I10
stRp190
sg8
g5
((dp191
I149910238
I3
sI52357470
I7
stRp192
sg11
g5
((dp193
Vohio state university
p194
I7
sVkent state university
p195
I3
stRp196
ssVbing dai
p197
(dp198
g4
g5
((dp199
I2505449123
I1
sI2121896106
I1
sI2230569963
I1
sI2370728883
I1
sI2142770677
I1
sI2152282840
I2
sI2311976377
I2
sI2318113151
I1
stRp200
sg8
g5
((dp201
I99065089
I1
sI177933477
I2
sI160606119
I2
sI91656880
I1
sI1300548115
I1
sI72816309
I1
sNI1
sI170201317
I1
stRp202
sg11
g5
((dp203
Vchina medical university
p204
I1
sVsecond military medical university
p205
I2
sVtsinghua university
p206
I1
sVindustrial research institute
p207
I1
sVuniversity of pittsburgh
p208
I1
sNI1
sVuniversity of tennessee health science center
p209
I2
sVdrexel university
p210
I1
stRp211
ssVyunming ye
p212
(dp213
g4
g5
((dp214
I2167640884
I10
stRp215
sg8
g5
((dp216
I204983213
I10
stRp217
sg11
g5
((dp218
Vharbin institute of technology
p219
I10
stRp220
ssVsabine hug
p221
(dp222
g4
g5
((dp223
I2146375315
I9
stRp224
sg8
g5
((dp225
NI9
stRp226
sg11
g5
((dp227
NI9
stRp228
ssVdarcy davis
p229
(dp230
g4
g5
((dtRp231
sg8
g5
((dtRp232
sg11
g5
((dtRp233
ssVscott barlowe
p234
(dp235
g4
g5
((dp236
I1221686930
I10
stRp237
sg8
g5
((dp238
I102149020
I8
sI103406327
I2
stRp239
sg11
g5
((dp240
Vwestern carolina university
p241
I2
sVuniversity of north carolina at charlotte
p242
I8
stRp243
ssValon efrat
p244
(dp245
g4
g5
((dp246
I167375625
I10
stRp247
sg8
g5
((dp248
I138006243
I10
stRp249
sg11
g5
((dp250
Vuniversity of arizona
p251
I10
stRp252
ssVfran\u005cc{c}ois poulet
p253
(dp254
g4
g5
((dtRp255
sg8
g5
((dtRp256
sg11
g5
((dtRp257
ssVthomas sprenger
p258
(dp259
g4
g5
((dtRp260
sg8
g5
((dtRp261
sg11
g5
((dtRp262
ssVchia-ling huang
p263
(dp264
g4
g5
((dtRp265
sg8
g5
((dtRp266
sg11
g5
((dtRp267
ssVliang gou
p268
(dp269
g4
g5
((dp270
I2489912001
I1
sI2100405389
I9
stRp271
sg8
g5
((dp272
NI1
sI130769515
I7
sI1341412227
I2
stRp273
sg11
g5
((dp274
Vpennsylvania state university
p275
I7
sNI1
sVibm
p276
I2
stRp277
ssVrudi vernik
p278
(dp279
g4
g5
((dp280
I2400766649
I10
stRp281
sg8
g5
((dp282
I170239107
I4
sI1303474014
I6
stRp283
sg11
g5
((dp284
Vdefence science and technology organisation
p285
I6
sVuniversity of south australia
p286
I4
stRp287
ssVdaniel faber
p288
(dp289
g4
g5
((dp290
I2514939377
I1
sI2109481066
I6
sI2583484556
I1
sI2112387405
I2
stRp291
sg8
g5
((dp292
NI1
sI8087733
I1
sI71965598
I2
sI12912129
I6
stRp293
sg11
g5
((dp294
NI1
sVuniversity of tubingen
p295
I1
sVnortheastern university
p296
I6
sVadelphi university
p297
I2
stRp298
ssVjames bieman
p299
(dp300
g4
g5
((dtRp301
sg8
g5
((dtRp302
sg11
g5
((dtRp303
ssVtyng-ruey chuang
p304
(dp305
g4
g5
((dtRp306
sg8
g5
((dtRp307
sg11
g5
((dtRp308
ssVsixiao yang
p309
(dp310
g4
g5
((dp311
I2169072505
I1
sI2230326699
I2
sI2427733517
I1
stRp312
sg8
g5
((dp313
I2250955327
I2
sI19820366
I1
sI200769079
I1
stRp314
sg11
g5
((dp315
Vchinese academy of sciences
p316
I1
sVhuawei
p317
I2
sVhong kong university of science and technology
p318
I1
stRp319
ssVfeza buzluca
p320
(dp321
g4
g5
((dp322
I136456581
I10
stRp323
sg8
g5
((dp324
I84218800
I1
sI48912391
I9
stRp325
sg11
g5
((dp326
Vistanbul technical university
p327
I9
sVuniversity of california davis
p328
I1
stRp329
ssVala abuthawabeh
p330
(dp331
g4
g5
((dp332
I318230568
I6
stRp333
sg8
g5
((dp334
I153267046
I6
stRp335
sg11
g5
((dp336
Vkaiserslautern university of technology
p337
I6
stRp338
ssVdaniel jackson
p339
(dp340
g4
g5
((dp341
I2435235114
I1
sI2422944348
I1
sI2120858950
I8
stRp342
sg8
g5
((dp343
NI1
sI84884186
I1
sI63966007
I8
stRp344
sg11
g5
((dp345
NI1
sVnewcastle university
p346
I1
sVmassachusetts institute of technology
p347
I8
stRp348
ssVyao sun
p349
(dp350
g4
g5
((dp351
I2466881810
I2
sI2116864411
I4
sI2601504642
I1
sI2170932198
I2
sI2172116143
I1
stRp352
sg8
g5
((dp353
I99065089
I2
sI160606119
I4
sI105804677
I1
sI19820366
I1
sI139660479
I2
stRp354
sg11
g5
((dp355
Vtsinghua university
p356
I2
sVchinese academy of sciences
p357
I1
sVcentral south university
p358
I2
sVinstitute of biophysics
p359
I1
sVuniversity of tennessee health science center
p360
I4
stRp361
ssVdaniel weiskopf
p362
(dp363
g4
g5
((dp364
I2025685111
I10
stRp365
sg8
g5
((dp366
I100066346
I10
stRp367
sg11
g5
((dp368
Vuniversity of stuttgart
p369
I10
stRp370
ssVtina eliassi-rad
p371
(dp372
g4
g5
((dtRp373
sg8
g5
((dtRp374
sg11
g5
((dtRp375
ssVhiroki omote
p376
(dp377
g4
g5
((dp378
I2134284772
I1
sI2040061107
I2
sI2198985084
I2
sI1975873702
I3
sI2073004799
I2
stRp379
sg8
g5
((dp380
I177738480
I3
sNI3
sI98285908
I2
sI4588055
I2
stRp381
sg11
g5
((dp382
Vosaka university
p383
I2
sVjapan advanced institute of science and technology
p384
I3
sVtottori university
p385
I2
sNI3
stRp386
ssVali civril
p387
(dp388
g4
g5
((dp389
I1655838045
I10
stRp390
sg8
g5
((dp391
I168864056
I1
sI165799507
I9
stRp392
sg11
g5
((dp393
Vbilkent university
p394
I1
sVrensselaer polytechnic institute
p395
I9
stRp396
ssVsheelagh carpendale
p397
(dp398
g4
g5
((dp399
I2076420186
I10
stRp400
sg8
g5
((dp401
I168635309
I10
stRp402
sg11
g5
((dp403
Vuniversity of calgary
p404
I10
stRp405
ssVching-yung lin
p406
(dp407
g4
g5
((dtRp408
sg8
g5
((dtRp409
sg11
g5
((dtRp410
ssVkristina hanspers
p411
(dp412
g4
g5
((dp413
I302394737
I8
sI2157555243
I1
sI2571527897
I1
stRp414
sg8
g5
((dp415
I1321430492
I9
sI36258959
I1
stRp416
sg11
g5
((dp417
Vgladstone institutes
p418
I9
sVuniversity of california san diego
p419
I1
stRp420
ssVclaus lewerentz
p421
(dp422
g4
g5
((dp423
I2428867824
I1
sI25798412
I9
stRp424
sg8
g5
((dp425
I51783024
I9
sI143379178
I1
stRp426
sg11
g5
((dp427
Vforschungszentrum informatik
p428
I1
sVbrandenburg university of technology
p429
I9
stRp430
ssVtanja munz
p431
(dp432
g4
g5
((dp433
I2562032984
I1
sI2565257721
I1
sI2228594996
I4
stRp434
sg8
g5
((dp435
NI1
sI100066346
I4
sI196424126
I1
stRp436
sg11
g5
((dp437
NI1
sVuniversity of stuttgart
p438
I4
sVmax planck institute for the history of science
p439
I1
stRp440
ssVmichael ogawa
p441
(dp442
g4
g5
((dp443
I2561689174
I1
sI2154356511
I7
stRp444
sg8
g5
((dp445
I84218800
I6
sI47838141
I1
sI55176711
I1
stRp446
sg11
g5
((dp447
Vuniversity of california davis
p448
I6
sVuniversity of california
p449
I1
sVsaint louis university
p450
I1
stRp451
ssVyi-chien chang
p452
(dp453
g4
g5
((dtRp454
sg8
g5
((dtRp455
sg11
g5
((dtRp456
ssVqi zhou
p457
(dp458
g4
g5
((dp459
I2482959930
I1
sI2511673396
I2
sI2284851590
I7
stRp460
sg8
g5
((dp461
I98251732
I7
sI44921830
I2
sI36399199
I1
stRp462
sg11
g5
((dp463
Vmcmaster university
p464
I7
sVnanjing university of science and technology
p465
I1
sVinstitute of zoology
p466
I2
stRp467
ssVhiroaki kitano
p468
(dp469
g4
g5
((dp470
I2300419674
I10
stRp471
sg8
g5
((dp472
I1334257032
I8
sI142637625
I1
sI122411786
I1
stRp473
sg11
g5
((dp474
Vat t labs
p475
I8
sVokinawa institute of science and technology
p476
I1
sVcalifornia institute of technology
p477
I1
stRp478
ssVvictor kasyanov
p479
(dp480
g4
g5
((dtRp481
sg8
g5
((dtRp482
sg11
g5
((dtRp483
ssVchristian lange
p484
(dp485
g4
g5
((dtRp486
sg8
g5
((dtRp487
sg11
g5
((dtRp488
ssVchris stark
p489
(dp490
g4
g5
((dp491
I2177122352
I10
stRp492
sg8
g5
((dp493
I1324220072
I8
sI70931966
I1
sI1291836623
I1
stRp494
sg11
g5
((dp495
Vmount sinai hospital
p496
I8
sVmount sinai hospital toronto
p497
I1
sVuniversite de montreal
p498
I1
stRp499
ssVludovic cottret
p500
(dp501
g4
g5
((dp502
I2042242437
I10
stRp503
sg8
g5
((dp504
I203339264
I1
sI1314251682
I6
sI1326498283
I1
sI1294671590
I2
stRp505
sg11
g5
((dp506
Vinstitut national de la recherche agronomique
p507
I6
sVuniversity of lyon
p508
I1
sVcentre national de la recherche scientifique
p509
I2
sVfrench institute for research in computer science and automation
p510
I1
stRp511
ssVbaining guo
p512
(dp513
g4
g5
((dp514
I2153421060
I10
stRp515
sg8
g5
((dp516
I99065089
I1
sI1290206253
I9
stRp517
sg11
g5
((dp518
Vtsinghua university
p519
I1
sVmicrosoft
p520
I9
stRp521
ssVfabian theis
p522
(dp523
g4
g5
((dtRp524
sg8
g5
((dtRp525
sg11
g5
((dtRp526
ssVfolker meyer
p527
(dp528
g4
g5
((dp529
I2189089885
I10
stRp530
sg8
g5
((dp531
I1282105669
I6
sI40347166
I1
sI20121455
I3
stRp532
sg11
g5
((dp533
Vargonne national laboratory
p534
I6
sVbielefeld university
p535
I3
sVuniversity of chicago
p536
I1
stRp537
ssVjie hua
p538
(dp539
g4
g5
((dp540
I2252831281
I3
sI2108761724
I5
sI2029269438
I1
sI2555129049
I1
stRp541
sg8
g5
((dp542
I1288702032
I3
sNI1
sI73614715
I1
sI116953780
I5
stRp543
sg11
g5
((dp544
Vministry of education
p545
I3
sVtongji university
p546
I5
sVit university
p547
I1
sNI1
stRp548
ssVcody dunne
p549
(dp550
g4
g5
((dp551
I2133791059
I10
stRp552
sg8
g5
((dp553
I66946132
I8
sI1290206253
I1
sI22675022
I1
stRp554
sg11
g5
((dp555
Vuniversity of maryland college park
p556
I8
sVmicrosoft
p557
I1
sVwilliams college
p558
I1
stRp559
ssVzahra ashktorab
p560
(dp561
g4
g5
((dp562
I1823870228
I1
sI1395455470
I8
sI2549118591
I1
stRp563
sg8
g5
((dp564
NI1
sI66946132
I8
sI887358342
I1
stRp565
sg11
g5
((dp566
NI1
sVunited states national library of medicine
p567
I1
sVuniversity of maryland college park
p568
I8
stRp569
ssVrina nakazawa
p570
(dp571
g4
g5
((dp572
I2102172331
I4
stRp573
sg8
g5
((dp574
I26120043
I3
sI74801974
I1
stRp575
sg11
g5
((dp576
Vochanomizu university
p577
I3
sVuniversity of tokyo
p578
I1
stRp579
ssVr. zachariah
p580
(dp581
g4
g5
((dtRp582
sg8
g5
((dtRp583
sg11
g5
((dtRp584
ssVsankar veeramoni
p585
(dp586
g4
g5
((dp587
I2057255430
I10
stRp588
sg8
g5
((dp589
I138006243
I10
stRp590
sg11
g5
((dp591
Vuniversity of arizona
p592
I10
stRp593
ssVhans-peter lenhof
p594
(dp595
g4
g5
((dtRp596
sg8
g5
((dtRp597
sg11
g5
((dtRp598
ssVjohn dill
p599
(dp600
g4
g5
((dp601
I2156312165
I8
sI2557988533
I2
stRp602
sg8
g5
((dp603
I18014758
I8
sI867280407
I2
stRp604
sg11
g5
((dp605
Vsimon fraser university
p606
I8
sVuniversity of texas southwestern medical center
p607
I2
stRp608
ssVilir jusufi
p609
(dp610
g4
g5
((dp611
I349917418
I9
sI2529452459
I1
stRp612
sg8
g5
((dp613
I84218800
I3
sI177721651
I1
sI223464139
I6
stRp614
sg11
g5
((dp615
Vuniversity of california davis
p616
I3
sVlinnaeus university
p617
I6
sVoakland university
p618
I1
stRp619
ssVkatharina lehmann
p620
(dp621
g4
g5
((dtRp622
sg8
g5
((dtRp623
sg11
g5
((dtRp624
ssVamyra meidiana
p625
(dp626
g4
g5
((dp627
I2224463814
I2
stRp628
sg8
g5
((dp629
I129604602
I2
stRp630
sg11
g5
((dp631
Vuniversity of sydney
p632
I2
stRp633
ssVjuan cruz
p634
(dp635
g4
g5
((dtRp636
sg8
g5
((dtRp637
sg11
g5
((dtRp638
ssVdavid kao
p639
(dp640
g4
g5
((dtRp641
sg8
g5
((dtRp642
sg11
g5
((dtRp643
ssVdonny daniel
p644
(dp645
g4
g5
((dtRp646
sg8
g5
((dtRp647
sg11
g5
((dtRp648
ssVrandy goebel
p649
(dp650
g4
g5
((dp651
I2127323036
I10
stRp652
sg8
g5
((dp653
I151746483
I1
sI154425047
I9
stRp654
sg11
g5
((dp655
Vuniversity of alberta
p656
I9
sVuniversity of waterloo
p657
I1
stRp658
ssVmichael schroeder
p659
(dp660
g4
g5
((dtRp661
sg8
g5
((dtRp662
sg11
g5
((dtRp663
ssVchristopher collins
p664
(dp665
g4
g5
((dtRp666
sg8
g5
((dtRp667
sg11
g5
((dtRp668
ssVhiroshi nagamochi
p669
(dp670
g4
g5
((dp671
I224340343
I10
stRp672
sg8
g5
((dp673
I22299242
I8
sI136259955
I2
stRp674
sg11
g5
((dp675
Vtoyohashi university of technology
p676
I2
sVkyoto university
p677
I8
stRp678
ssVaakash goel
p679
(dp680
g4
g5
((dp681
I2232018698
I3
sI2579869763
I1
stRp682
sg8
g5
((dp683
NI1
sI130701444
I3
stRp684
sg11
g5
((dp685
Vgeorgia institute of technology
p686
I3
sNI1
stRp687
ssVguodong wang
p688
(dp689
g4
g5
((dp690
I2109922073
I1
sI2302171746
I2
sI2604363418
I2
sI2288899205
I5
stRp691
sg8
g5
((dp692
I12912129
I5
sI183067930
I2
sI143302722
I1
sI19820366
I2
stRp693
sg11
g5
((dp694
Vchinese academy of sciences
p695
I2
sVshanghai jiao tong university
p696
I2
sVnortheastern university
p697
I5
sVuniversity of kentucky
p698
I1
stRp699
ssVxiaolong zhang
p700
(dp701
g4
g5
((dp702
I2596333104
I1
sI2305080710
I1
sI2115674438
I3
sI2306915255
I2
sI2153276153
I1
sI2413086236
I1
sI2484616213
I1
stRp703
sg8
g5
((dp704
I43922553
I1
sI80947539
I1
sI32907511
I1
sI198357145
I3
sI76214153
I1
sI188950975
I1
sI205237279
I2
stRp705
sg11
g5
((dp706
Vnankai university
p707
I2
sVfairleigh dickinson university
p708
I1
sVglaxosmithkline
p709
I1
sVlanzhou university
p710
I1
sVwuhan university of science and technology
p711
I1
sVfuzhou university
p712
I1
sVnational heart lung and blood institute
p713
I3
stRp714
ssVneeraj krishnan
p715
(dp716
g4
g5
((dp717
I2579194038
I2
stRp718
sg8
g5
((dp719
I102322142
I2
stRp720
sg11
g5
((dp721
Vrutgers university
p722
I2
stRp723
ssVyan wang
p724
(dp725
g4
g5
((dp726
I2304985761
I4
sI2434269075
I1
sI2254212406
I1
sI2101795799
I2
sI2490654173
I1
sI2337057917
I1
stRp727
sg8
g5
((dp728
NI1
sI76214153
I1
sI108468826
I1
sI2250955327
I1
sI16365422
I2
sI205237279
I4
stRp729
sg11
g5
((dp730
Vnankai university
p731
I4
sVlanzhou university
p732
I1
sVstevens institute of technology
p733
I1
sVhuawei
p734
I1
sVhefei university of technology
p735
I2
sNI1
stRp736
ssVchen-hsiang yeang
p737
(dp738
g4
g5
((dtRp739
sg8
g5
((dtRp740
sg11
g5
((dtRp741
ssVstephan kottler
p742
(dp743
g4
g5
((dp744
I1988296295
I10
stRp745
sg8
g5
((dp746
I8087733
I10
stRp747
sg11
g5
((dp748
Vuniversity of tubingen
p749
I10
stRp750
ssVmehmet belviranli
p751
(dp752
g4
g5
((dtRp753
sg8
g5
((dtRp754
sg11
g5
((dtRp755
ssVradoslav petkov
p756
(dp757
g4
g5
((dp758
I2107032786
I1
sI2231063453
I1
sI2430794510
I3
stRp759
sg8
g5
((dp760
I30147112
I3
sNI1
sI89864525
I1
stRp761
sg11
g5
((dp762
Vsofia medical university
p763
I3
sVuniversity of trier
p764
I1
sNI1
stRp765
ssVwu peng
p766
(dp767
g4
g5
((dtRp768
sg8
g5
((dtRp769
sg11
g5
((dtRp770
ssVhansj{{o}}rg schmauder
p771
(dp772
g4
g5
((dtRp773
sg8
g5
((dtRp774
sg11
g5
((dtRp775
ssVryosuke saga
p776
(dp777
g4
g5
((dp778
I1947148526
I2
sI1793363511
I8
stRp779
sg8
g5
((dp780
I15807432
I8
sI182069643
I2
stRp781
sg11
g5
((dp782
Vosaka prefecture university
p783
I8
sVkanagawa institute of technology
p784
I2
stRp785
ssValptug dilek
p786
(dp787
g4
g5
((dp788
I2463472198
I2
stRp789
sg8
g5
((dp790
I168864056
I1
sI198068145
I1
stRp791
sg11
g5
((dp792
Vbilkent university
p793
I1
sVscientific and technological research council of turkey
p794
I1
stRp795
ssVgraeme gange
p796
(dp797
g4
g5
((dp798
I1952466777
I10
stRp799
sg8
g5
((dp800
I165779595
I10
stRp801
sg11
g5
((dp802
Vuniversity of melbourne
p803
I10
stRp804
ssVpanpan xu
p805
(dp806
g4
g5
((dp807
I2169579204
I2
sI2162967365
I2
sI2515314570
I1
sI2126531132
I3
sI2346417102
I1
sI2137120063
I1
stRp808
sg8
g5
((dp809
I205913397
I1
sI200769079
I3
sNI1
sI113940042
I2
sI21193070
I1
sI151727225
I2
stRp810
sg11
g5
((dp811
Vbeijing jiaotong university
p812
I1
sNI1
sVharbin engineering university
p813
I2
sVpeking university shenzhen graduate school
p814
I1
sVhong kong university of science and technology
p815
I3
sVshanghai university
p816
I2
stRp817
ssVchristian heine
p818
(dp819
g4
g5
((dp820
I2134391808
I4
sI2325371105
I1
sI2569368147
I1
sI2479977379
I1
sI2461892616
I1
sI2502444899
I1
sI2305094667
I1
stRp821
sg8
g5
((dp822
I148283060
I1
sI130438778
I1
sI195342982
I1
sNI2
sI129604602
I4
sI119449181
I1
stRp823
sg11
g5
((dp824
Vmemorial university of newfoundland
p825
I1
sVlawrence berkeley national laboratory
p826
I1
sVtechnische universitat ilmenau
p827
I1
sVuniversity of medicine and dentistry of new jersey
p828
I1
sVuniversity of sydney
p829
I4
sNI2
stRp830
ssVsteve kieffer
p831
(dp832
g4
g5
((dp833
I2114562596
I4
stRp834
sg8
g5
((dp835
I56590836
I4
stRp836
sg11
g5
((dp837
Vmonash university
p838
I4
stRp839
ssVjing yang
p840
(dp841
g4
g5
((dp842
I2433077697
I1
sI2249827155
I4
sI2140865061
I1
sI2570234111
I2
sI2587971733
I2
stRp843
sg8
g5
((dp844
I142797827
I1
sI162868743
I1
sI36258959
I2
sI66946132
I2
sI867280407
I1
sNI1
sI135310074
I1
sI120240667
I1
stRp845
sg11
g5
((dp846
Vtianjin university
p847
I1
sVwhitehead institute
p848
I1
sVuniversity of california san diego school of medicine
p849
I1
sVuniversity of california san diego
p850
I2
sVuniversity of maryland college park
p851
I2
sVuniversity of wisconsin madison
p852
I1
sNI1
sVuniversity of texas southwestern medical center
p853
I1
stRp854
ssVkrisjanis prusis
p855
(dp856
g4
g5
((dp857
I2226944522
I2
stRp858
sg8
g5
((dp859
I121934539
I2
stRp860
sg11
g5
((dp861
Vinstitute of mathematics
p862
I2
stRp863
ssVxin zhang
p864
(dp865
g4
g5
((dp866
I2258387296
I2
sI2536196210
I2
sI2603709142
I1
sI2433408040
I3
sI2162108029
I1
sI2287261151
I1
stRp867
sg8
g5
((dp868
I865419266
I2
sI114395901
I1
sI100671193
I1
sI20231570
I2
sI111088046
I3
sI180670191
I1
stRp869
sg11
g5
((dp870
Vbanting and best department of medical research
p871
I1
sVuniversity of nebraska lincoln
p872
I1
sVboston university
p873
I3
sVcatholic university of leuven
p874
I2
sVuniversity of california san francisco
p875
I1
sVpeking university
p876
I2
stRp877
ssValexander lex
p878
(dp879
g4
g5
((dp880
I2034595988
I10
stRp881
sg8
g5
((dp882
I136199984
I5
sI121883995
I1
sI4092182
I4
stRp883
sg11
g5
((dp884
Vgraz university of technology
p885
I4
sVjohannes kepler university of linz
p886
I1
sVharvard university
p887
I5
stRp888
ssVmartin greilich
p889
(dp890
g4
g5
((dp891
I2278182379
I1
stRp892
sg8
g5
((dp893
I89864525
I1
stRp894
sg11
g5
((dp895
Vuniversity of trier
p896
I1
stRp897
ssVdouglas taggart
p898
(dp899
g4
g5
((dp900
I2274947029
I2
sI2133740334
I1
stRp901
sg8
g5
((dp902
NI1
sI44265643
I2
stRp903
sg11
g5
((dp904
NI1
sVrowan university
p905
I2
stRp906
ssVshixia liu
p907
(dp908
g4
g5
((dp909
I2111177146
I9
sI2135136333
I1
stRp910
sg8
g5
((dp911
I99065089
I2
sI1341412227
I5
sI1290206253
I2
sI118564535
I1
stRp912
sg11
g5
((dp913
Vtsinghua university
p914
I2
sVuniversity of bern
p915
I1
sVibm
p916
I5
sVmicrosoft
p917
I2
stRp918
ssVchristopher fuhrman
p919
(dp920
g4
g5
((dtRp921
sg8
g5
((dtRp922
sg11
g5
((dtRp923
ssVneeraj sangal
p924
(dp925
g4
g5
((dp926
I1841092946
I10
stRp927
sg8
g5
((dp928
NI10
stRp929
sg11
g5
((dp930
NI10
stRp931
ssVmichael bristow
p932
(dp933
g4
g5
((dtRp934
sg8
g5
((dtRp935
sg11
g5
((dtRp936
ssVr brunella
p937
(dp938
g4
g5
((dp939
I2584065434
I1
sI2225886358
I1
stRp940
sg8
g5
((dp941
NI2
stRp942
sg11
g5
((dp943
NI2
stRp944
ssVnicole radde
p945
(dp946
g4
g5
((dp947
I2305032570
I2
sI2082225715
I7
sI2306901653
I1
stRp948
sg8
g5
((dp949
I180923762
I1
sI100066346
I7
sI926574661
I2
stRp950
sg11
g5
((dp951
Vuniversity of stuttgart
p952
I7
sVuniversity of cologne
p953
I1
sVleipzig university
p954
I2
stRp955
ssVmao huang
p956
(dp957
g4
g5
((dp958
I2116992717
I9
sI2465127877
I1
stRp959
sg8
g5
((dp960
I83519826
I9
sI177933477
I1
stRp961
sg11
g5
((dp962
Vnanjing medical university
p963
I9
sVsecond military medical university
p964
I1
stRp965
ssVcharles stolper
p966
(dp967
g4
g5
((dtRp968
sg8
g5
((dtRp969
sg11
g5
((dtRp970
ssVjanet six
p971
(dp972
g4
g5
((dtRp973
sg8
g5
((dtRp974
sg11
g5
((dtRp975
ssVkazuo misue
p976
(dp977
g4
g5
((dp978
I80170140
I10
stRp979
sg8
g5
((dp980
I2252096349
I2
sI146399215
I8
stRp981
sg11
g5
((dp982
Vuniversity of tsukuba
p983
I8
sVfujitsu
p984
I2
stRp985
ssVjianfei chen
p986
(dp987
g4
g5
((dp988
I2177245446
I10
stRp989
sg8
g5
((dp990
I98677209
I6
sI72212903
I4
stRp991
sg11
g5
((dp992
Vuniversity of edinburgh
p993
I6
sVharbin veterinary research institute
p994
I4
stRp995
ssVtim dwyer
p996
(dp997
g4
g5
((dp998
I2517900996
I1
sI2059826982
I1
sI2420187967
I8
stRp999
sg8
g5
((dp1000
I33213144
I1
sI56590836
I4
sI1290206253
I3
sI185261750
I1
sI78570951
I1
stRp1001
sg11
g5
((dp1002
Vuniversity of florida
p1003
I1
sVmonash university
p1004
I4
sVmicrosoft
p1005
I3
sVuniversity of toronto
p1006
I1
sVmonash university clayton campus
p1007
I1
stRp1008
ssVkatja grafenhain
p1009
(dp1010
g4
g5
((dp1011
I2557338787
I1
stRp1012
sg8
g5
((dp1013
I202697423
I1
stRp1014
sg11
g5
((dp1015
Vuniversity of zurich
p1016
I1
stRp1017
ssVkasper dinkla
p1018
(dp1019
g4
g5
((dtRp1020
sg8
g5
((dtRp1021
sg11
g5
((dtRp1022
ssVcatherine plaisant
p1023
(dp1024
g4
g5
((dp1025
I216611935
I10
stRp1026
sg8
g5
((dp1027
I66946132
I10
stRp1028
sg11
g5
((dp1029
Vuniversity of maryland college park
p1030
I10
stRp1031
ssVdenis kalkofen
p1032
(dp1033
g4
g5
((dp1034
I2091577687
I10
stRp1035
sg8
g5
((dp1036
I4092182
I10
stRp1037
sg11
g5
((dp1038
Vgraz university of technology
p1039
I10
stRp1040
ssVnathalie henry
p1041
(dp1042
g4
g5
((dp1043
I2141074253
I10
stRp1044
sg8
g5
((dp1045
I129604602
I1
sI1326498283
I8
sI1290206253
I1
stRp1046
sg11
g5
((dp1047
Vuniversity of sydney
p1048
I1
sVmicrosoft
p1049
I1
sVfrench institute for research in computer science and automation
p1050
I8
stRp1051
ssVadam perer
p1052
(dp1053
g4
g5
((dp1054
I2049716498
I10
stRp1055
sg8
g5
((dp1056
I1341412227
I6
sI66946132
I4
stRp1057
sg11
g5
((dp1058
Vibm
p1059
I6
sVuniversity of maryland college park
p1060
I4
stRp1061
ssVhelen gibson
p1062
(dp1063
g4
g5
((dtRp1064
sg8
g5
((dtRp1065
sg11
g5
((dtRp1066
ssVfeodor dragan
p1067
(dp1068
g4
g5
((dtRp1069
sg8
g5
((dtRp1070
sg11
g5
((dtRp1071
ssVrobert faris
p1072
(dp1073
g4
g5
((dp1074
I2255882521
I8
sI2162403149
I2
stRp1075
sg8
g5
((dp1076
I84218800
I4
sI193374721
I2
sI1297546910
I1
sI114027177
I3
stRp1077
sg11
g5
((dp1078
Vuniversity of california davis
p1079
I4
sVuniversity of north carolina system
p1080
I1
sVinternet society
p1081
I2
sVuniversity of north carolina at chapel hill
p1082
I3
stRp1083
ssVchristian pich
p1084
(dp1085
g4
g5
((dp1086
I2070727085
I5
sI1971350245
I5
stRp1087
sg8
g5
((dp1088
I189712700
I5
sI181233156
I5
stRp1089
sg11
g5
((dp1090
Vuniversity of oregon
p1091
I5
sVuniversity of konstanz
p1092
I5
stRp1093
ssVrobert kincaid
p1094
(dp1095
g4
g5
((dp1096
I1991332810
I10
stRp1097
sg8
g5
((dp1098
I138285227
I10
stRp1099
sg11
g5
((dp1100
Vagilent technologies
p1101
I10
stRp1102
ssVkaty borner
p1103
(dp1104
g4
g5
((dp1105
I2143783256
I10
stRp1106
sg8
g5
((dp1107
I592451
I5
sI165450437
I5
stRp1108
sg11
g5
((dp1109
Vindiana university
p1110
I5
sVindiana university bloomington
p1111
I5
stRp1112
ssVk. dinkla
p1113
(dp1114
g4
g5
((dtRp1115
sg8
g5
((dtRp1116
sg11
g5
((dtRp1117
ssVleon goldovsky
p1118
(dp1119
g4
g5
((dp1120
I2022784037
I10
stRp1121
sg8
g5
((dp1122
I1303153112
I10
stRp1123
sg11
g5
((dp1124
Veuropean bioinformatics institute
p1125
I10
stRp1126
ssVmohammed el-kebir
p1127
(dp1128
g4
g5
((dtRp1129
sg8
g5
((dtRp1130
sg11
g5
((dtRp1131
ssVphilippas tsigas
p1132
(dp1133
g4
g5
((dp1134
I2274820914
I10
stRp1135
sg8
g5
((dp1136
I66862912
I10
stRp1137
sg11
g5
((dp1138
Vchalmers university of technology
p1139
I10
stRp1140
ssVbjorn junker
p1141
(dp1142
g4
g5
((dtRp1143
sg8
g5
((dtRp1144
sg11
g5
((dtRp1145
ssVflorian reitz
p1146
(dp1147
g4
g5
((dp1148
I2030005285
I9
stRp1149
sg8
g5
((dp1150
I89864525
I9
stRp1151
sg11
g5
((dp1152
Vuniversity of trier
p1153
I9
stRp1154
ssVpietro palladino
p1155
(dp1156
g4
g5
((dp1157
I2325060547
I3
sI2079640707
I6
sI2554243533
I1
stRp1158
sg8
g5
((dp1159
I59361560
I1
sI27483092
I9
stRp1160
sg11
g5
((dp1161
Vuniversity of perugia
p1162
I9
sVinstituto politecnico nacional
p1163
I1
stRp1164
ssVsergey pupyrev
p1165
(dp1166
g4
g5
((dp1167
I335358257
I10
stRp1168
sg8
g5
((dp1169
I130823665
I1
sI138006243
I7
sI138819846
I2
stRp1170
sg11
g5
((dp1171
Vural state university
p1172
I2
sVural federal university
p1173
I1
sVuniversity of arizona
p1174
I7
stRp1175
ssVthanh-nghi do
p1176
(dp1177
g4
g5
((dtRp1178
sg8
g5
((dtRp1179
sg11
g5
((dtRp1180
ssVmarkus hoferlin
p1181
(dp1182
g4
g5
((dp1183
I2088501402
I10
stRp1184
sg8
g5
((dp1185
I100066346
I10
stRp1186
sg11
g5
((dp1187
Vuniversity of stuttgart
p1188
I10
stRp1189
ssVtim pattison
p1190
(dp1191
g4
g5
((dp1192
I2465031764
I1
sI1963698674
I1
sI2227107620
I7
sI2601893175
I1
stRp1193
sg8
g5
((dp1194
I28407311
I1
sI121881413
I1
sI1303474014
I7
sI76023543
I1
stRp1195
sg11
g5
((dp1196
Vdefence science and technology organization
p1197
I1
sVdefence science and technology organisation
p1198
I7
sVuniversity of manchester
p1199
I1
sVkeck school of medicine of usc
p1200
I1
stRp1201
ssVdustin holloway
p1202
(dp1203
g4
g5
((dtRp1204
sg8
g5
((dtRp1205
sg11
g5
((dtRp1206
ssVstephen kobourov
p1207
(dp1208
g4
g5
((dtRp1209
sg8
g5
((dtRp1210
sg11
g5
((dtRp1211
ssVallan kuchinsky
p1212
(dp1213
g4
g5
((dp1214
I1993782082
I7
sI2503198844
I3
stRp1215
sg8
g5
((dp1216
I138285227
I3
sI1324840837
I7
stRp1217
sg11
g5
((dp1218
Vagilent technologies
p1219
I3
sVhewlett packard
p1220
I7
stRp1221
ssVee-peng lim
p1222
(dp1223
g4
g5
((dtRp1224
sg8
g5
((dtRp1225
sg11
g5
((dtRp1226
ssVjosiane mothe
p1227
(dp1228
g4
g5
((dp1229
I2141333472
I10
stRp1230
sg8
g5
((dp1231
I134560555
I1
sI1296747019
I1
sI17866349
I5
sI1294671590
I2
sI160993911
I1
stRp1232
sg11
g5
((dp1233
Vpaul sabatier university
p1234
I1
sVcentre national de la recherche scientifique
p1235
I2
sVunited parcel service
p1236
I1
sVqueensland university of technology
p1237
I1
sVuniversity of toulouse
p1238
I5
stRp1239
ssVvahan yoghourdjian
p1240
(dp1241
g4
g5
((dp1242
I2229043355
I1
stRp1243
sg8
g5
((dp1244
I56590836
I1
stRp1245
sg11
g5
((dp1246
Vmonash university
p1247
I1
stRp1248
ssVpeer bork
p1249
(dp1250
g4
g5
((dp1251
I2068107358
I10
stRp1252
sg8
g5
((dp1253
I1303153112
I6
sI1314251682
I1
sI205582932
I1
sI12708293
I1
sI21535869
I1
stRp1254
sg11
g5
((dp1255
Veuropean bioinformatics institute
p1256
I6
sVmax delbruck center for molecular medicine
p1257
I1
sVinstitut national de la recherche agronomique
p1258
I1
sVswiss institute of bioinformatics
p1259
I1
sVbirmingham city university faculty of health
p1260
I1
stRp1261
ssVn. riche
p1262
(dp1263
g4
g5
((dtRp1264
sg8
g5
((dtRp1265
sg11
g5
((dtRp1266
ssVliangyue li
p1267
(dp1268
g4
g5
((dp1269
I2144246580
I10
stRp1270
sg8
g5
((dp1271
I12912129
I4
sI55732556
I5
sI63190737
I1
stRp1272
sg11
g5
((dp1273
Varizona state university
p1274
I5
sVnortheastern university
p1275
I4
sVuniversity at buffalo
p1276
I1
stRp1277
ssVpatrick knab
p1278
(dp1279
g4
g5
((dp1280
I2027472880
I6
stRp1281
sg8
g5
((dp1282
I202697423
I6
stRp1283
sg11
g5
((dp1284
Vuniversity of zurich
p1285
I6
stRp1286
ssVquanhoang nguyen
p1287
(dp1288
g4
g5
((dp1289
I2589275490
I1
stRp1290
sg8
g5
((dp1291
NI1
stRp1292
sg11
g5
((dp1293
NI1
stRp1294
ssVmarc kreveld
p1295
(dp1296
g4
g5
((dtRp1297
sg8
g5
((dtRp1298
sg11
g5
((dtRp1299
ssVxiaohui huang
p1300
(dp1301
g4
g5
((dtRp1302
sg8
g5
((dtRp1303
sg11
g5
((dtRp1304
ssVeric wang
p1305
(dp1306
g4
g5
((dtRp1307
sg8
g5
((dtRp1308
sg11
g5
((dtRp1309
ssVxiaolin du
p1310
(dp1311
g4
g5
((dp1312
I2109583984
I4
sI2222307937
I1
sI2563237397
I1
sI2585441686
I1
sI2509598929
I1
sI2476262362
I1
sI2145715918
I1
stRp1313
sg8
g5
((dp1314
I139759216
I1
sI32574673
I1
sI3923682
I4
sNI1
sI149594827
I1
sI204983213
I1
sI154099455
I1
stRp1315
sg11
g5
((dp1316
Vharbin institute of technology
p1317
I1
sVshandong university
p1318
I1
sVshantou university
p1319
I1
sVsoochow university
p1320
I4
sNI1
sVxidian university
p1321
I1
sVbeijing university of posts and telecommunications
p1322
I1
stRp1323
ssVvaldis krebs
p1324
(dp1325
g4
g5
((dtRp1326
sg8
g5
((dtRp1327
sg11
g5
((dtRp1328
ssVfernando paulovich
p1329
(dp1330
g4
g5
((dtRp1331
sg8
g5
((dtRp1332
sg11
g5
((dtRp1333
ssVroman yusufov
p1334
(dp1335
g4
g5
((dp1336
I2528175264
I1
sI2346996368
I1
sI2299820670
I1
stRp1337
sg8
g5
((dp1338
NI2
sI138006243
I1
stRp1339
sg11
g5
((dp1340
NI2
sVuniversity of arizona
p1341
I1
stRp1342
ssVquang nguyen
p1343
(dp1344
g4
g5
((dp1345
I2437636290
I1
sI2568374019
I1
sI2488749476
I1
sI2580793669
I1
sI2195544295
I1
sI2151829416
I1
sI2582150089
I1
sI1984542744
I1
sI2144822172
I2
stRp1346
sg8
g5
((dp1347
I60488453
I1
sI142476485
I1
sNI4
sI157725225
I1
sI129604602
I1
sI84470341
I2
stRp1348
sg11
g5
((dp1349
Vthe catholic university of america
p1350
I2
sVmiddlesex university
p1351
I1
sVuniversity of sydney
p1352
I1
sNI4
sVuniversity of illinois at urbana champaign
p1353
I1
sVecole polytechnique
p1354
I1
stRp1355
ssVpaolo simonetto
p1356
(dp1357
g4
g5
((dp1358
I2092657714
I10
stRp1359
sg8
g5
((dp1360
I872287936
I6
sI138006243
I2
sI1294671590
I2
stRp1361
sg11
g5
((dp1362
Vl abri
p1363
I6
sVcentre national de la recherche scientifique
p1364
I2
sVuniversity of arizona
p1365
I2
stRp1366
ssVfanny chevalier
p1367
(dp1368
g4
g5
((dp1369
I2123408939
I10
stRp1370
sg8
g5
((dp1371
I1326498283
I2
sI1290206253
I3
sI185261750
I2
sI74753095
I3
stRp1372
sg11
g5
((dp1373
Vuniversity of toronto
p1374
I2
sVocad university
p1375
I3
sVmicrosoft
p1376
I3
sVfrench institute for research in computer science and automation
p1377
I2
stRp1378
ssVmartin haubrock
p1379
(dp1380
g4
g5
((dp1381
I297552986
I10
stRp1382
sg8
g5
((dp1383
I74656192
I10
stRp1384
sg11
g5
((dp1385
Vuniversity of gottingen
p1386
I10
stRp1387
ssVseok-hee hong
p1388
(dp1389
g4
g5
((dtRp1390
sg8
g5
((dtRp1391
sg11
g5
((dtRp1392
ssVraymond lau
p1393
(dp1394
g4
g5
((dtRp1395
sg8
g5
((dtRp1396
sg11
g5
((dtRp1397
ssVyouliang yan
p1398
(dp1399
g4
g5
((dp1400
I2100524292
I7
sI2529843205
I2
sI2232338014
I1
stRp1401
sg8
g5
((dp1402
I2250955327
I6
sI58200834
I2
sI31746571
I1
sI200769079
I1
stRp1403
sg11
g5
((dp1404
Vhuawei
p1405
I6
sVuniversity of new south wales
p1406
I1
sVsouthern medical university
p1407
I2
sVhong kong university of science and technology
p1408
I1
stRp1409
ssVpeter stuckey
p1410
(dp1411
g4
g5
((dtRp1412
sg8
g5
((dtRp1413
sg11
g5
((dtRp1414
ssVhans hagen
p1415
(dp1416
g4
g5
((dtRp1417
sg8
g5
((dtRp1418
sg11
g5
((dtRp1419
ssVjoe faith
p1420
(dp1421
g4
g5
((dp1422
I2140494979
I9
sI2304819342
I1
stRp1423
sg8
g5
((dp1424
I32394136
I9
sI1291425158
I1
stRp1425
sg11
g5
((dp1426
Vgoogle
p1427
I1
sVnorthumbria university
p1428
I9
stRp1429
ssVminsuk kahng
p1430
(dp1431
g4
g5
((dp1432
I2238818493
I10
stRp1433
sg8
g5
((dp1434
I139264467
I7
sI130701444
I3
stRp1435
sg11
g5
((dp1436
Vgeorgia institute of technology
p1437
I3
sVseoul national university
p1438
I7
stRp1439
ssVtom freeman
p1440
(dp1441
g4
g5
((dtRp1442
sg8
g5
((dtRp1443
sg11
g5
((dtRp1444
ssVaika terada
p1445
(dp1446
g4
g5
((dp1447
I1966631153
I10
stRp1448
sg8
g5
((dp1449
I114531698
I7
sI26120043
I1
sI1336942987
I1
sI74801974
I1
stRp1450
sg11
g5
((dp1451
Vochanomizu university
p1452
I1
sVtokyo institute of technology
p1453
I7
sVuniversity of tokyo
p1454
I1
sVnational presto industries
p1455
I1
stRp1456
ssVtakafumi yamashita
p1457
(dp1458
g4
g5
((dp1459
I2558644040
I1
sI2324418417
I6
sI2578722888
I1
sI2097829445
I2
stRp1460
sg8
g5
((dp1461
I15807432
I1
sNI2
sI317356780
I6
sI135598925
I1
stRp1462
sg11
g5
((dp1463
NI2
sVosaka prefecture university
p1464
I1
sVosaka city university
p1465
I6
sVkyushu university
p1466
I1
stRp1467
ssVpaul verrier
p1468
(dp1469
g4
g5
((dtRp1470
sg8
g5
((dtRp1471
sg11
g5
((dtRp1472
ssVxiaobo wang
p1473
(dp1474
g4
g5
((dp1475
I2166243473
I1
sI2150494508
I8
sI2281784462
I1
stRp1476
sg8
g5
((dp1477
I99065089
I1
sI153350211
I1
sI1343551460
I1
sI86501945
I1
sI145311948
I1
sI19820366
I5
stRp1478
sg11
g5
((dp1479
Vchinese academy of sciences
p1480
I5
sVtsinghua university
p1481
I1
sVuniversity of texas md anderson cancer center
p1482
I1
sVuniversity of delaware
p1483
I1
sVjohns hopkins university
p1484
I1
sVjohns hopkins school of medicine
p1485
I1
stRp1486
ssVsaul greenberg
p1487
(dp1488
g4
g5
((dp1489
I2120666348
I10
stRp1490
sg8
g5
((dp1491
I168635309
I10
stRp1492
sg11
g5
((dp1493
Vuniversity of calgary
p1494
I10
stRp1495
ssVkwan-liu ma
p1496
(dp1497
g4
g5
((dtRp1498
sg8
g5
((dtRp1499
sg11
g5
((dtRp1500
ssVbruno pinaud
p1501
(dp1502
g4
g5
((dp1503
I2310213649
I2
sI2151680227
I6
sI2590727671
I2
stRp1504
sg8
g5
((dp1505
I872287936
I4
sI125801170
I2
sI1326498283
I2
sI15057530
I2
stRp1506
sg11
g5
((dp1507
Vl abri
p1508
I4
sVecole polytechnique de l universite de nantes
p1509
I2
sVuniversity of bordeaux
p1510
I2
sVfrench institute for research in computer science and automation
p1511
I2
stRp1512
ssVyuke wang
p1513
(dp1514
g4
g5
((dp1515
I2308615526
I2
sI2167234662
I2
sI2569127111
I6
stRp1516
sg8
g5
((dp1517
I60158472
I2
sI63772739
I2
sI162577319
I6
stRp1518
sg11
g5
((dp1519
Vconcordia university
p1520
I2
sVflorida atlantic university
p1521
I2
sVuniversity of texas at dallas
p1522
I6
stRp1523
ssVmary czerwinski
p1524
(dp1525
g4
g5
((dp1526
I2071984077
I10
stRp1527
sg8
g5
((dp1528
I1290206253
I10
stRp1529
sg11
g5
((dp1530
Vmicrosoft
p1531
I10
stRp1532
ssVchris rawlings
p1533
(dp1534
g4
g5
((dtRp1535
sg8
g5
((dtRp1536
sg11
g5
((dtRp1537
ssVqing liu
p1538
(dp1539
g4
g5
((dp1540
I2235616418
I1
sI2148582422
I2
sI2576560246
I1
sI2305741575
I1
sI2496047640
I1
sI2429045852
I3
sI2311138796
I1
stRp1541
sg8
g5
((dp1542
I1330063522
I1
sI1294671590
I1
sI31746571
I1
sI157773358
I1
sI66946132
I1
sNI2
sI146824383
I1
sI1292875679
I2
stRp1543
sg11
g5
((dp1544
Vuniversity of new south wales
p1545
I1
sVhallym university
p1546
I1
sVjohnson johnson
p1547
I1
sVuniversity of maryland college park
p1548
I1
sNI2
sVcentre national de la recherche scientifique
p1549
I1
sVcommonwealth scientific and industrial research organisation
p1550
I2
sVsun yat sen university
p1551
I1
stRp1552
ssVozan ersoy
p1553
(dp1554
g4
g5
((dp1555
I2153232670
I10
stRp1556
sg8
g5
((dp1557
I169381384
I9
sI121934539
I1
stRp1558
sg11
g5
((dp1559
Vuniversity of groningen
p1560
I9
sVinstitute of mathematics
p1561
I1
stRp1562
ssVandr{\u005c'e} reichenbach
p1563
(dp1564
g4
g5
((dtRp1565
sg8
g5
((dtRp1566
sg11
g5
((dtRp1567
ssVemek demir
p1568
(dp1569
g4
g5
((dp1570
I2156017416
I10
stRp1571
sg8
g5
((dp1572
I1334819555
I10
stRp1573
sg11
g5
((dp1574
Vmemorial sloan kettering cancer center
p1575
I10
stRp1576
ssVfaraz zaidi
p1577
(dp1578
g4
g5
((dp1579
I1972729971
I10
stRp1580
sg8
g5
((dp1581
I15057530
I1
sI1326498283
I1
sI103583917
I4
sI1294671590
I4
stRp1582
sg11
g5
((dp1583
Vkarachi institute of economics and technology
p1584
I4
sVcentre national de la recherche scientifique
p1585
I4
sVuniversity of bordeaux
p1586
I1
sVfrench institute for research in computer science and automation
p1587
I1
stRp1588
ssVkang zhang
p1589
(dp1590
g4
g5
((dp1591
I2116548023
I10
stRp1592
sg8
g5
((dp1593
I223532165
I2
sI162577319
I1
sI1329882472
I1
sI56523146
I1
sI19820366
I1
sI36258959
I4
stRp1594
sg11
g5
((dp1595
Vchinese academy of sciences
p1596
I1
sVvisual sciences
p1597
I1
sVuniversity of utah
p1598
I2
sVmoran eye center
p1599
I1
sVuniversity of texas at dallas
p1600
I1
sVuniversity of california san diego
p1601
I4
stRp1602
ssVjacek ratzinger
p1603
(dp1604
g4
g5
((dp1605
I2075500571
I7
sI2310036004
I1
stRp1606
sg8
g5
((dp1607
I145847075
I7
sI129774422
I1
stRp1608
sg11
g5
((dp1609
Vuniversity of vienna
p1610
I1
sVvienna university of technology
p1611
I7
stRp1612
ssVjames abello
p1613
(dp1614
g4
g5
((dp1615
I2143609536
I10
stRp1616
sg8
g5
((dp1617
I1334257032
I4
sI102322142
I6
stRp1618
sg11
g5
((dp1619
Vat t labs
p1620
I4
sVrutgers university
p1621
I6
stRp1622
ssVgonzalo ramos
p1623
(dp1624
g4
g5
((dp1625
I2137512077
I10
stRp1626
sg8
g5
((dp1627
I1290206253
I5
sI185261750
I5
stRp1628
sg11
g5
((dp1629
Vuniversity of toronto
p1630
I5
sVmicrosoft
p1631
I5
stRp1632
ssVstef elzen
p1633
(dp1634
g4
g5
((dtRp1635
sg8
g5
((dtRp1636
sg11
g5
((dtRp1637
ssVjohn stasko
p1638
(dp1639
g4
g5
((dtRp1640
sg8
g5
((dtRp1641
sg11
g5
((dtRp1642
ssVandrei kramer
p1643
(dp1644
g4
g5
((dp1645
I2150987928
I8
sI2415896523
I1
stRp1646
sg8
g5
((dp1647
NI1
sI100066346
I8
stRp1648
sg11
g5
((dp1649
NI1
sVuniversity of stuttgart
p1650
I8
stRp1651
ssVjiro tanaka
p1652
(dp1653
g4
g5
((dp1654
I2117557937
I1
sI2505980963
I1
sI2216957534
I7
sI2137650214
I1
stRp1655
sg8
g5
((dp1656
I36426075
I1
sI163770644
I1
sI41802502
I1
sI146399215
I7
stRp1657
sg11
g5
((dp1658
Vuniversity of tsukuba
p1659
I7
sVinstitute of medical science
p1660
I1
sVkanagawa university
p1661
I1
sVokayama university
p1662
I1
stRp1663
ssVweihong qian
p1664
(dp1665
g4
g5
((dp1666
I2153883332
I6
sI2106538477
I4
stRp1667
sg8
g5
((dp1668
I20231570
I6
sI1341412227
I4
stRp1669
sg11
g5
((dp1670
Vibm
p1671
I4
sVpeking university
p1672
I6
stRp1673
ssVjun zhu
p1674
(dp1675
g4
g5
((dp1676
I2140934447
I10
stRp1677
sg8
g5
((dp1678
I1302978242
I1
sI1285764155
I1
sI135310074
I8
stRp1679
sg11
g5
((dp1680
Vuniversity of wisconsin madison
p1681
I8
sVmerck co
p1682
I1
sVacademy of medical sciences united kingdom
p1683
I1
stRp1684
ssVxuemin lin
p1685
(dp1686
g4
g5
((dp1687
I2125481875
I10
stRp1688
sg8
g5
((dp1689
I31746571
I10
stRp1690
sg11
g5
((dp1691
Vuniversity of new south wales
p1692
I10
stRp1693
ssVragaad altarawneh
p1694
(dp1695
g4
g5
((dp1696
I337781377
I9
sI2396483085
I1
stRp1697
sg8
g5
((dp1698
I21173400
I1
sI153267046
I9
stRp1699
sg11
g5
((dp1700
Vkaiserslautern university of technology
p1701
I9
sVmutah university
p1702
I1
stRp1703
ssVegor bondarev
p1704
(dp1705
g4
g5
((dtRp1706
sg8
g5
((dtRp1707
sg11
g5
((dtRp1708
ssVjan taubert
p1709
(dp1710
g4
g5
((dp1711
I2510334536
I1
sI2104199087
I9
stRp1712
sg8
g5
((dp1713
I1303153112
I1
sI909457707
I8
sI20121455
I1
stRp1714
sg11
g5
((dp1715
Veuropean bioinformatics institute
p1716
I1
sVthe hertz corporation
p1717
I8
sVbielefeld university
p1718
I1
stRp1719
ssVwen xu
p1720
(dp1721
g4
g5
((dp1722
I2135946089
I2
sI2248898421
I1
sI2158844221
I1
sI2116176438
I1
sI2104845769
I5
stRp1723
sg8
g5
((dp1724
I1325886976
I4
sI126744593
I2
sI20089843
I1
sI157773358
I1
sI91045830
I1
sI137594350
I1
stRp1725
sg11
g5
((dp1726
Vsiemens
p1727
I4
sVuniversity of maryland baltimore
p1728
I2
sVsun yat sen university
p1729
I1
sVinfineon technologies
p1730
I1
sVprinceton university
p1731
I1
sVtexas a m university
p1732
I1
stRp1733
ssVrobert giegerich
p1734
(dp1735
g4
g5
((dp1736
I154878420
I10
stRp1737
sg8
g5
((dp1738
I20121455
I10
stRp1739
sg11
g5
((dp1740
Vbielefeld university
p1741
I10
stRp1742
ssVmichael mcguffin
p1743
(dp1744
g4
g5
((dtRp1745
sg8
g5
((dtRp1746
sg11
g5
((dtRp1747
ssVthomas reinhardt
p1748
(dp1749
g4
g5
((dtRp1750
sg8
g5
((dtRp1751
sg11
g5
((dtRp1752
ssVmaurice termeer
p1753
(dp1754
g4
g5
((dp1755
I2232504356
I10
stRp1756
sg8
g5
((dp1757
I145847075
I10
stRp1758
sg11
g5
((dp1759
Vvienna university of technology
p1760
I10
stRp1761
ssVsuzanne paley
p1762
(dp1763
g4
g5
((dtRp1764
sg8
g5
((dtRp1765
sg11
g5
((dtRp1766
ssVjean-daniel fekete
p1767
(dp1768
g4
g5
((dtRp1769
sg8
g5
((dtRp1770
sg11
g5
((dtRp1771
ssVa. pretorius
p1772
(dp1773
g4
g5
((dtRp1774
sg8
g5
((dtRp1775
sg11
g5
((dtRp1776
ssVantoine lambert
p1777
(dp1778
g4
g5
((dp1779
I2139011268
I9
sI2507448437
I1
stRp1780
sg8
g5
((dp1781
I872287936
I6
sI51158804
I1
sI1294671590
I3
stRp1782
sg11
g5
((dp1783
Vl abri
p1784
I6
sVcentre national de la recherche scientifique
p1785
I3
sVmassey university
p1786
I1
stRp1787
ssVniklas elmqvist
p1788
(dp1789
g4
g5
((dp1790
I2193023912
I10
stRp1791
sg8
g5
((dp1792
I1326498283
I3
sI66946132
I1
sI219193219
I6
stRp1793
sg11
g5
((dp1794
Vfrench institute for research in computer science and automation
p1795
I3
sVpurdue university
p1796
I6
sVuniversity of maryland college park
p1797
I1
stRp1798
ssVgiuseppe liotta
p1799
(dp1800
g4
g5
((dp1801
I2106343442
I7
sI2005506613
I3
stRp1802
sg8
g5
((dp1803
I27804330
I1
sI27483092
I6
sI116067653
I3
stRp1804
sg11
g5
((dp1805
Vuniversity of perugia
p1806
I6
sVbrown university
p1807
I1
sVuniversity of rome tor vergata
p1808
I3
stRp1809
ssVbenjamin bach
p1810
(dp1811
g4
g5
((dp1812
I2100961798
I10
stRp1813
sg8
g5
((dp1814
I1326498283
I6
sI1290206253
I4
stRp1815
sg11
g5
((dp1816
Vmicrosoft
p1817
I4
sVfrench institute for research in computer science and automation
p1818
I6
stRp1819
ssVmark roseman
p1820
(dp1821
g4
g5
((dp1822
I2050753819
I10
stRp1823
sg8
g5
((dp1824
I168635309
I10
stRp1825
sg11
g5
((dp1826
Vuniversity of calgary
p1827
I10
stRp1828
ssVyves chiricota
p1829
(dp1830
g4
g5
((dp1831
I259335324
I10
stRp1832
sg8
g5
((dp1833
I49663120
I2
sI104914703
I8
stRp1834
sg11
g5
((dp1835
Vuniversite du quebec a chicoutimi
p1836
I8
sVuniversite du quebec
p1837
I2
stRp1838
ssVc{\u005c'e}cile bothorel
p1839
(dp1840
g4
g5
((dtRp1841
sg8
g5
((dtRp1842
sg11
g5
((dtRp1843
ssVmathias john
p1844
(dp1845
g4
g5
((dp1846
I2127037666
I2
sI2158295813
I5
sI2468860767
I3
stRp1847
sg8
g5
((dp1848
I75951250
I3
sI4665924
I4
sI1294671590
I1
sI118019719
I2
stRp1849
sg11
g5
((dp1850
Vuniversity of rostock
p1851
I4
sVfree university of berlin
p1852
I3
sVcentre national de la recherche scientifique
p1853
I1
sVhoffmann la roche
p1854
I2
stRp1855
ssVpierre mazi\u005c'{e}re
p1856
(dp1857
g4
g5
((dtRp1858
sg8
g5
((dtRp1859
sg11
g5
((dtRp1860
ssVjie wu
p1861
(dp1862
g4
g5
((dp1863
I2103022394
I10
stRp1864
sg8
g5
((dp1865
I63772739
I7
sI84392919
I3
stRp1866
sg11
g5
((dp1867
Vflorida atlantic university
p1868
I7
sVtemple university
p1869
I3
stRp1870
ssValeks aris
p1871
(dp1872
g4
g5
((dp1873
I2112023433
I10
stRp1874
sg8
g5
((dp1875
I66946132
I9
sI1290206253
I1
stRp1876
sg11
g5
((dp1877
Vmicrosoft
p1878
I1
sVuniversity of maryland college park
p1879
I9
stRp1880
ssVrussell grocock
p1881
(dp1882
g4
g5
((dtRp1883
sg8
g5
((dtRp1884
sg11
g5
((dtRp1885
ssVpeteris rucevskis
p1886
(dp1887
g4
g5
((dp1888
I2483833688
I1
sI2587271128
I1
sI1762801814
I5
stRp1889
sg8
g5
((dp1890
I1303153112
I1
sNI1
sI121934539
I4
sI91123046
I1
stRp1891
sg11
g5
((dp1892
Veuropean bioinformatics institute
p1893
I1
sNI1
sVuniversity of latvia
p1894
I1
sVinstitute of mathematics
p1895
I4
stRp1896
ssVnathalie henry riche
p1897
(dp1898
g4
g5
((dp1899
I1879266857
I10
stRp1900
sg8
g5
((dp1901
I1290206253
I10
stRp1902
sg11
g5
((dp1903
Vmicrosoft
p1904
I10
stRp1905
ssVcristina-iulia bucur
p1906
(dp1907
g4
g5
((dtRp1908
sg8
g5
((dtRp1909
sg11
g5
((dtRp1910
ssVfr\u005c'ed\u005c'eric gilbert
p1911
(dp1912
g4
g5
((dtRp1913
sg8
g5
((dtRp1914
sg11
g5
((dtRp1915
ssVpeter liggesmeyer
p1916
(dp1917
g4
g5
((dp1918
I2303977313
I1
sI104458551
I8
sI2182175857
I1
stRp1919
sg8
g5
((dp1920
I1325886976
I1
sI176453806
I1
sI153267046
I8
stRp1921
sg11
g5
((dp1922
Vkaiserslautern university of technology
p1923
I8
sVuniversity of potsdam
p1924
I1
sVsiemens
p1925
I1
stRp1926
ssVtarik crnovrsanin
p1927
(dp1928
g4
g5
((dp1929
I255746245
I10
stRp1930
sg8
g5
((dp1931
I84218800
I10
stRp1932
sg11
g5
((dp1933
Vuniversity of california davis
p1934
I10
stRp1935
ssVtakuji yamada
p1936
(dp1937
g4
g5
((dp1938
I2311767065
I10
stRp1939
sg8
g5
((dp1940
I1303153112
I3
sI114531698
I6
sI22299242
I1
stRp1941
sg11
g5
((dp1942
Veuropean bioinformatics institute
p1943
I3
sVkyoto university
p1944
I1
sVtokyo institute of technology
p1945
I6
stRp1946
ssVjoris sansen
p1947
(dp1948
g4
g5
((dp1949
I2225283623
I3
stRp1950
sg8
g5
((dp1951
I872287936
I3
stRp1952
sg11
g5
((dp1953
Vl abri
p1954
I3
stRp1955
ssVgerik scheuermann
p1956
(dp1957
g4
g5
((dp1958
I2044057687
I10
stRp1959
sg8
g5
((dp1960
I926574661
I6
sI153267046
I4
stRp1961
sg11
g5
((dp1962
Vkaiserslautern university of technology
p1963
I4
sVleipzig university
p1964
I6
stRp1965
ssVmichael forster
p1966
(dp1967
g4
g5
((dtRp1968
sg8
g5
((dtRp1969
sg11
g5
((dtRp1970
ssVdanny holten
p1971
(dp1972
g4
g5
((dp1973
I2026092038
I10
stRp1974
sg8
g5
((dp1975
I83019370
I10
stRp1976
sg11
g5
((dp1977
Veindhoven university of technology
p1978
I10
stRp1979
ssVmartine smit
p1980
(dp1981
g4
g5
((dtRp1982
sg8
g5
((dtRp1983
sg11
g5
((dtRp1984
ssVn. dang
p1985
(dp1986
g4
g5
((dtRp1987
sg8
g5
((dtRp1988
sg11
g5
((dtRp1989
ssVyueping li
p1990
(dp1991
g4
g5
((dp1992
I2494555224
I1
sI2164325553
I1
sI2105904720
I6
sI2305493575
I2
stRp1993
sg8
g5
((dp1994
I129708740
I1
sI182722699
I6
sI5740404
I1
sI157773358
I2
stRp1995
sg11
g5
((dp1996
Vfujian medical university
p1997
I1
sVshenzhen polytechnic
p1998
I6
sVtianjin medical university
p1999
I1
sVsun yat sen university
p2000
I2
stRp2001
ssValexander krause
p2002
(dp2003
g4
g5
((dtRp2004
sg8
g5
((dtRp2005
sg11
g5
((dtRp2006
ssVgabriel cantareiro
p2007
(dp2008
g4
g5
((dp2009
I2566864494
I1
stRp2010
sg8
g5
((dp2011
I17974374
I1
stRp2012
sg11
g5
((dp2013
Vuniversity of sao paulo
p2014
I1
stRp2015
ssVlawrence hunter
p2016
(dp2017
g4
g5
((dp2018
I2124543161
I9
sI2568927477
I1
stRp2019
sg8
g5
((dp2020
I43360264
I5
sI1299303238
I2
sI921990950
I1
sI74801974
I1
sI51713134
I1
stRp2021
sg11
g5
((dp2022
Vanschutz medical campus
p2023
I1
sVnational institutes of health
p2024
I2
sVuniversity of colorado denver school of medicine
p2025
I5
sVuniversity of tokyo
p2026
I1
sVuniversity of colorado denver
p2027
I1
stRp2028
ssVandreas jansson
p2029
(dp2030
g4
g5
((dtRp2031
sg8
g5
((dtRp2032
sg11
g5
((dtRp2033
ssVyifan hu
p2034
(dp2035
g4
g5
((dp2036
I2104774040
I1
sI2161555278
I1
sI2145280021
I7
sI2581710342
I1
stRp2037
sg8
g5
((dp2038
I1334257032
I6
sI181326427
I1
sI21945476
I1
sI1327163397
I1
sI65760639
I1
stRp2039
sg11
g5
((dp2040
Vat t labs
p2041
I6
sVstate university of new york system
p2042
I1
sVdonghua university
p2043
I1
sVshanghai normal university
p2044
I1
sVwolfram research
p2045
I1
stRp2046
ssVli si-kun
p2047
(dp2048
g4
g5
((dtRp2049
sg8
g5
((dtRp2050
sg11
g5
((dtRp2051
ssVfabian beck
p2052
(dp2053
g4
g5
((dp2054
I2162039953
I10
stRp2055
sg8
g5
((dp2056
I100066346
I3
sI89864525
I7
stRp2057
sg11
g5
((dp2058
Vuniversity of trier
p2059
I7
sVuniversity of stuttgart
p2060
I3
stRp2061
ssVjorn kalinowski
p2062
(dp2063
g4
g5
((dp2064
I2130496276
I10
stRp2065
sg8
g5
((dp2066
I20121455
I10
stRp2067
sg11
g5
((dp2068
Vbielefeld university
p2069
I10
stRp2070
ssVjeffrey heer
p2071
(dp2072
g4
g5
((dp2073
I2112690490
I10
stRp2074
sg8
g5
((dp2075
I97018004
I6
sI201448701
I1
sI95457486
I2
sI55176711
I1
stRp2076
sg11
g5
((dp2077
Vuniversity of california berkeley
p2078
I2
sVstanford university
p2079
I6
sVuniversity of washington
p2080
I1
sVuniversity of california
p2081
I1
stRp2082
ssVben shneiderman
p2083
(dp2084
g4
g5
((dp2085
I668764113
I10
stRp2086
sg8
g5
((dp2087
I66946132
I10
stRp2088
sg11
g5
((dp2089
Vuniversity of maryland college park
p2090
I10
stRp2091
ssVadel ahmed
p2092
(dp2093
g4
g5
((dtRp2094
sg8
g5
((dtRp2095
sg11
g5
((dtRp2096
ssVjie gao
p2097
(dp2098
g4
g5
((dp2099
I2285078649
I1
sI1982009142
I8
sI2309304198
I1
stRp2100
sg8
g5
((dp2101
I87445476
I1
sI59553526
I3
sI33213144
I1
sI97018004
I1
sI78577930
I1
sI19820366
I2
sI205783295
I1
stRp2102
sg11
g5
((dp2103
Vchinese academy of sciences
p2104
I2
sVstony brook university
p2105
I3
sVxi an jiaotong university
p2106
I1
sVuniversity of florida
p2107
I1
sVstanford university
p2108
I1
sVcornell university
p2109
I1
sVcolumbia university
p2110
I1
stRp2111
ssVadam smith
p2112
(dp2113
g4
g5
((dtRp2114
sg8
g5
((dtRp2115
sg11
g5
((dtRp2116
ssVugur dogrusoz
p2117
(dp2118
g4
g5
((dp2119
I54681137
I10
stRp2120
sg8
g5
((dp2121
I168864056
I10
stRp2122
sg11
g5
((dp2123
Vbilkent university
p2124
I10
stRp2125
ssVjoshua ho
p2126
(dp2127
g4
g5
((dtRp2128
sg8
g5
((dtRp2129
sg11
g5
((dtRp2130
ssVwalter didimo
p2131
(dp2132
g4
g5
((dp2133
I2168469989
I10
stRp2134
sg8
g5
((dp2135
I27483092
I10
stRp2136
sg11
g5
((dp2137
Vuniversity of perugia
p2138
I10
stRp2139
ssVayellet tal
p2140
(dp2141
g4
g5
((dp2142
I2482196945
I1
sI2282829714
I9
stRp2143
sg8
g5
((dp2144
I174306211
I9
sI45129253
I1
stRp2145
sg11
g5
((dp2146
Vtechnion israel institute of technology
p2147
I9
sVuniversity college london
p2148
I1
stRp2149
ssVmarc streit
p2150
(dp2151
g4
g5
((dp2152
I2138221895
I10
stRp2153
sg8
g5
((dp2154
I136199984
I1
sI121883995
I5
sI4092182
I4
stRp2155
sg11
g5
((dp2156
Vgraz university of technology
p2157
I4
sVjohannes kepler university of linz
p2158
I5
sVharvard university
p2159
I1
stRp2160
ssVpatrick auw{a}rter
p2161
(dp2162
g4
g5
((dtRp2163
sg8
g5
((dtRp2164
sg11
g5
((dtRp2165
ssVguy melan\u005cc{c}on
p2166
(dp2167
g4
g5
((dtRp2168
sg8
g5
((dtRp2169
sg11
g5
((dtRp2170
ssVdavid auber
p2171
(dp2172
g4
g5
((dp2173
I2098528998
I10
stRp2174
sg8
g5
((dp2175
I872287936
I9
sI1294671590
I1
stRp2176
sg11
g5
((dp2177
Vl abri
p2178
I9
sVcentre national de la recherche scientifique
p2179
I1
stRp2180
ssVmichael fischer
p2181
(dp2182
g4
g5
((dp2183
I2428877507
I1
sI2147681545
I1
sI2488983179
I2
sI2553078542
I1
sI2055171377
I1
sI2310465907
I1
sI2291045017
I1
sI2552822555
I1
sI2498239293
I1
stRp2184
sg8
g5
((dp2185
I889804353
I1
sI141945490
I1
sI60668342
I1
sI71730758
I1
sNI4
sI100066346
I1
sI149919469
I1
stRp2186
sg11
g5
((dp2187
Vuniversity of british columbia
p2188
I1
sVuniversity of stuttgart
p2189
I1
sVuniversity of regensburg
p2190
I1
sNI4
sVuniversity of louisiana at monroe
p2191
I1
sVcalifornia polytechnic state university
p2192
I1
sVbosch
p2193
I1
stRp2194
ssVshiri freilich
p2195
(dp2196
g4
g5
((dp2197
I2066938269
I8
sI2308263927
I2
stRp2198
sg8
g5
((dp2199
I1303153112
I1
sI16391192
I7
sI376102
I2
stRp2200
sg11
g5
((dp2201
Veuropean bioinformatics institute
p2202
I1
sVtel aviv university
p2203
I7
sVagricultural research organization volcani center
p2204
I2
stRp2205
ssVzhengping zuo
p2206
(dp2207
g4
g5
((dtRp2208
sg8
g5
((dtRp2209
sg11
g5
((dtRp2210
ssVmichael kaufmann
p2211
(dp2212
g4
g5
((dp2213
I2176702104
I9
sI2534652824
I1
stRp2214
sg8
g5
((dp2215
I155976169
I1
sI8087733
I8
sI91712215
I1
stRp2216
sg11
g5
((dp2217
Vwitten herdecke university
p2218
I1
sVuniversity of tubingen
p2219
I8
sVsaarland university
p2220
I1
stRp2221
ssVnan cao
p2222
(dp2223
g4
g5
((dp2224
I2524007322
I1
sI2310362532
I1
sI2306420466
I1
sI2101761023
I7
stRp2225
sg8
g5
((dp2226
NI2
sI1341412227
I3
sI200769079
I3
sI19820366
I1
sI63966007
I1
stRp2227
sg11
g5
((dp2228
Vchinese academy of sciences
p2229
I1
sNI2
sVhong kong university of science and technology
p2230
I3
sVibm
p2231
I3
sVmassachusetts institute of technology
p2232
I1
stRp2233
ssVmarcel hlawatsch
p2234
(dp2235
g4
g5
((dp2236
I192478602
I10
stRp2237
sg8
g5
((dp2238
I100066346
I10
stRp2239
sg11
g5
((dp2240
Vuniversity of stuttgart
p2241
I10
stRp2242
ssVemden gansner
p2243
(dp2244
g4
g5
((dtRp2245
sg8
g5
((dtRp2246
sg11
g5
((dtRp2247
ssVivica letunic
p2248
(dp2249
g4
g5
((dp2250
I46769561
I10
stRp2251
sg8
g5
((dp2252
I1303153112
I9
sI1336263701
I1
stRp2253
sg11
g5
((dp2254
Veuropean bioinformatics institute
p2255
I9
sVwellcome trust centre for human genetics
p2256
I1
stRp2257
ssVvincent lacroix
p2258
(dp2259
g4
g5
((dp2260
I2144103282
I10
stRp2261
sg8
g5
((dp2262
I203339264
I2
sI1326498283
I6
sI1294671590
I1
sI170486558
I1
stRp2263
sg11
g5
((dp2264
Vcentre national de la recherche scientifique
p2265
I1
sVfrench institute for research in computer science and automation
p2266
I6
sVpompeu fabra university
p2267
I1
sVuniversity of lyon
p2268
I2
stRp2269
ssVmichel westenberg
p2270
(dp2271
g4
g5
((dtRp2272
sg8
g5
((dtRp2273
sg11
g5
((dtRp2274
ssVtakayuki itoh
p2275
(dp2276
g4
g5
((dp2277
I2308037968
I1
sI2576504418
I1
sI2222288691
I1
sI2471229198
I6
sI2307092479
I1
stRp2278
sg8
g5
((dp2279
I150744194
I1
sI1341412227
I3
sI74801974
I1
sNI1
sI26120043
I3
sI1292669757
I1
stRp2280
sg11
g5
((dp2281
Vibm
p2282
I3
sNI1
sVwaseda university
p2283
I1
sVochanomizu university
p2284
I3
sVuniversity of tokyo
p2285
I1
sVtoshiba
p2286
I1
stRp2287
ssVhanghang tong
p2288
(dp2289
g4
g5
((dp2290
I2224718883
I10
stRp2291
sg8
g5
((dp2292
I99065089
I2
sI74973139
I5
sI55732556
I1
sI1341412227
I2
stRp2293
sg11
g5
((dp2294
Vtsinghua university
p2295
I2
sVcarnegie mellon university
p2296
I5
sVarizona state university
p2297
I1
sVibm
p2298
I2
stRp2299
ssVwilhelm hasselbring
p2300
(dp2301
g4
g5
((dp2302
I2055047545
I10
stRp2303
sg8
g5
((dp2304
I129877168
I2
sI193700539
I2
sI32021983
I6
stRp2305
sg11
g5
((dp2306
Vuniversity of kiel
p2307
I6
sVuniversity of oldenburg
p2308
I2
sVtilburg university
p2309
I2
stRp2310
ssVluca grilli
p2311
(dp2312
g4
g5
((dp2313
I2116521584
I2
sI2141143939
I8
stRp2314
sg8
g5
((dp2315
I59361560
I8
sI27483092
I2
stRp2316
sg11
g5
((dp2317
Vinstituto politecnico nacional
p2318
I8
sVuniversity of perugia
p2319
I2
stRp2320
ssVharald gall
p2321
(dp2322
g4
g5
((dtRp2323
sg8
g5
((dtRp2324
sg11
g5
((dtRp2325
ssVqing-wen feng
p2326
(dp2327
g4
g5
((dtRp2328
sg8
g5
((dtRp2329
sg11
g5
((dtRp2330
ssVjames faeder
p2331
(dp2332
g4
g5
((dtRp2333
sg8
g5
((dtRp2334
sg11
g5
((dtRp2335
ssVrohan williams
p2336
(dp2337
g4
g5
((dtRp2338
sg8
g5
((dtRp2339
sg11
g5
((dtRp2340
ssVulrik brandes
p2341
(dp2342
g4
g5
((dp2343
I1226911827
I10
stRp2344
sg8
g5
((dp2345
I189712700
I9
sI186354981
I1
stRp2346
sg11
g5
((dp2347
Vuniversity of passau
p2348
I1
sVuniversity of konstanz
p2349
I9
stRp2350
ssVpatrick madden
p2351
(dp2352
g4
g5
((dtRp2353
sg8
g5
((dtRp2354
sg11
g5
((dtRp2355
ssVemilio di giacomo
p2356
(dp2357
g4
g5
((dp2358
I2120045270
I10
stRp2359
sg8
g5
((dp2360
I27483092
I10
stRp2361
sg11
g5
((dp2362
Vuniversity of perugia
p2363
I10
stRp2364
ssVxiting wang
p2365
(dp2366
g4
g5
((dp2367
I2096164459
I7
sI2165014100
I2
sI2581957198
I1
stRp2368
sg8
g5
((dp2369
I99065089
I7
sI116953780
I2
sI157507598
I1
stRp2370
sg11
g5
((dp2371
Vtsinghua university
p2372
I7
sVtongji university
p2373
I2
sVshenyang university of technology
p2374
I1
stRp2375
ssVfabien jourdan
p2376
(dp2377
g4
g5
((dp2378
I2083426550
I10
stRp2379
sg8
g5
((dp2380
I1314251682
I10
stRp2381
sg11
g5
((dp2382
Vinstitut national de la recherche agronomique
p2383
I10
stRp2384
ssVdieter schmalstieg
p2385
(dp2386
g4
g5
((dp2387
I100176519
I10
stRp2388
sg8
g5
((dp2389
I145847075
I1
sI4092182
I9
stRp2390
sg11
g5
((dp2391
Vvienna university of technology
p2392
I1
sVgraz university of technology
p2393
I9
stRp2394
ssVahmet cetintas
p2395
(dp2396
g4
g5
((dp2397
I2076633397
I1
sI223316566
I6
stRp2398
sg8
g5
((dp2399
I168864056
I6
sNI1
stRp2400
sg11
g5
((dp2401
NI1
sVbilkent university
p2402
I6
stRp2403
ssVheorhiy byelas
p2404
(dp2405
g4
g5
((dp2406
I2577949168
I4
sI1206645723
I6
stRp2407
sg8
g5
((dp2408
I169381384
I4
sI83019370
I1
sI1334415907
I4
sI121934539
I1
stRp2409
sg11
g5
((dp2410
Vuniversity of groningen
p2411
I4
sVuniversity medical center groningen
p2412
I4
sVinstitute of mathematics
p2413
I1
sVeindhoven university of technology
p2414
I1
stRp2415
ssVdavid gotz
p2416
(dp2417
g4
g5
((dp2418
I2149494377
I10
stRp2419
sg8
g5
((dp2420
I114027177
I6
sI1341412227
I4
stRp2421
sg11
g5
((dp2422
Vuniversity of north carolina at chapel hill
p2423
I6
sVibm
p2424
I4
stRp2425
ssVkarlis freivalds
p2426
(dp2427
g4
g5
((dp2428
I1513385022
I6
stRp2429
sg8
g5
((dp2430
I121934539
I1
sI91123046
I5
stRp2431
sg11
g5
((dp2432
Vuniversity of latvia
p2433
I5
sVinstitute of mathematics
p2434
I1
stRp2435
ssVumut tekin
p2436
(dp2437
g4
g5
((dp2438
I2122598578
I9
sI2116129708
I1
stRp2439
sg8
g5
((dp2440
I45642913
I9
sI19920983
I1
stRp2441
sg11
g5
((dp2442
Vkirikkale university
p2443
I9
sVmayo medical school
p2444
I1
stRp2445
ssVegon wuchner
p2446
(dp2447
g4
g5
((dp2448
I700186401
I10
stRp2449
sg8
g5
((dp2450
I1325886976
I10
stRp2451
sg11
g5
((dp2452
Vsiemens
p2453
I10
stRp2454
ssVj.b. kennedy
p2455
(dp2456
g4
g5
((dtRp2457
sg8
g5
((dtRp2458
sg11
g5
((dtRp2459
ssVmohammad ghoniem
p2460
(dp2461
g4
g5
((dp2462
I2570644134
I3
sI2332318879
I7
stRp2463
sg8
g5
((dp2464
I895027328
I4
sI168704049
I3
sI102149020
I3
stRp2465
sg11
g5
((dp2466
Vmodern sciences and arts university
p2467
I4
sVecole des mines de nantes
p2468
I3
sVuniversity of north carolina at charlotte
p2469
I3
stRp2470
ssVaaron barsky
p2471
(dp2472
g4
g5
((dp2473
I1991276153
I6
stRp2474
sg8
g5
((dp2475
I141945490
I6
stRp2476
sg11
g5
((dp2477
Vuniversity of british columbia
p2478
I6
stRp2479
ssVmichael wybrow
p2480
(dp2481
g4
g5
((dp2482
I1971752061
I10
stRp2483
sg8
g5
((dp2484
I165779595
I1
sI56590836
I4
sI78570951
I5
stRp2485
sg11
g5
((dp2486
Vmonash university
p2487
I4
sVuniversity of melbourne
p2488
I1
sVmonash university clayton campus
p2489
I5
stRp2490
ssVarnaud sallaberry
p2491
(dp2492
g4
g5
((dp2493
I2559295754
I1
sI198127655
I9
stRp2494
sg8
g5
((dp2495
I84218800
I2
sI872287936
I1
sI208215962
I3
sI1326498283
I1
sI1294671590
I3
stRp2496
sg11
g5
((dp2497
Vuniversity of california davis
p2498
I2
sVl abri
p2499
I1
sVcentre national de la recherche scientifique
p2500
I3
sVpaul valery university montpellier iii
p2501
I3
sVfrench institute for research in computer science and automation
p2502
I1
stRp2503
ssVstefan schlechtweg
p2504
(dp2505
g4
g5
((dp2506
I226930821
I10
stRp2507
sg8
g5
((dp2508
I95793202
I10
stRp2509
sg11
g5
((dp2510
Votto von guericke university magdeburg
p2511
I10
stRp2512
ssVvineet sinha
p2513
(dp2514
g4
g5
((dp2515
I2157436256
I9
sI2149956747
I1
stRp2516
sg8
g5
((dp2517
I1329621470
I1
sI63966007
I9
stRp2518
sg11
g5
((dp2519
Vbhabha atomic research centre
p2520
I1
sVmassachusetts institute of technology
p2521
I9
stRp2522
ssVadrian rusu
p2523
(dp2524
g4
g5
((dtRp2525
sg8
g5
((dtRp2526
sg11
g5
((dtRp2527
ssVji zhang
p2528
(dp2529
g4
g5
((dtRp2530
sg8
g5
((dtRp2531
sg11
g5
((dtRp2532
ssVanthony dekker
p2533
(dp2534
g4
g5
((dtRp2535
sg8
g5
((dtRp2536
sg11
g5
((dtRp2537
ssValexander pico
p2538
(dp2539
g4
g5
((dtRp2540
sg8
g5
((dtRp2541
sg11
g5
((dtRp2542
ssVheidrun schumann
p2543
(dp2544
g4
g5
((dp2545
I2107935922
I10
stRp2546
sg8
g5
((dp2547
I4665924
I10
stRp2548
sg11
g5
((dp2549
Vuniversity of rostock
p2550
I10
stRp2551
ssVdanah boyd
p2552
(dp2553
g4
g5
((dp2554
I2149064801
I10
stRp2555
sg8
g5
((dp2556
I1325784139
I1
sI1290206253
I7
sI95457486
I2
stRp2557
sg11
g5
((dp2558
Vuniversity of california berkeley
p2559
I2
sVmicrosoft
p2560
I7
sVyahoo
p2561
I1
stRp2562
ssVfan du
p2563
(dp2564
g4
g5
((dtRp2565
sg8
g5
((dtRp2566
sg11
g5
((dtRp2567
ssVjoe mellor
p2568
(dp2569
g4
g5
((dtRp2570
sg8
g5
((dtRp2571
sg11
g5
((dtRp2572
ssVpatrick mary
p2573
(dp2574
g4
g5
((dtRp2575
sg8
g5
((dtRp2576
sg11
g5
((dtRp2577
ssVerhan giral
p2578
(dp2579
g4
g5
((dp2580
I2413301633
I2
sI380618745
I4
sI2591358835
I1
sI2518920367
I1
stRp2581
sg8
g5
((dp2582
I168864056
I3
sNI4
sI124519637
I1
stRp2583
sg11
g5
((dp2584
NI4
sVbilkent university
p2585
I3
sVtom sawyer software
p2586
I1
stRp2587
ssVemmanuel pietriga
p2588
(dp2589
g4
g5
((dp2590
I36478446
I10
stRp2591
sg8
g5
((dp2592
I1326498283
I8
sI33976269
I1
sI1294671590
I1
stRp2593
sg11
g5
((dp2594
Vcentre national de la recherche scientifique
p2595
I1
sVxerox
p2596
I1
sVfrench institute for research in computer science and automation
p2597
I8
stRp2598
ssVjan kuntzer
p2599
(dp2600
g4
g5
((dp2601
I2571313345
I5
sI1975445074
I4
sI2545439321
I1
stRp2602
sg8
g5
((dp2603
I118019719
I5
sI91712215
I4
sI126595327
I1
stRp2604
sg11
g5
((dp2605
Vdepartment of trade and industry
p2606
I1
sVsaarland university
p2607
I4
sVhoffmann la roche
p2608
I5
stRp2609
ssVyehuda koren
p2610
(dp2611
g4
g5
((dp2612
I1966367906
I10
stRp2613
sg8
g5
((dp2614
I1334257032
I2
sI1325784139
I6
sI1283103587
I2
stRp2615
sg11
g5
((dp2616
Vat t labs
p2617
I2
sVyahoo
p2618
I6
sVat t
p2619
I2
stRp2620
ssVlei shi
p2621
(dp2622
g4
g5
((dp2623
I2217740912
I6
sI2530790432
I1
sI2271555196
I1
sI2111997045
I1
sI2559000137
I1
stRp2624
sg8
g5
((dp2625
I99065089
I2
sI1302978242
I1
sI1341412227
I1
sI85207335
I1
sI204983213
I1
sI165932596
I1
sI142401562
I1
sI172675005
I1
sI205783295
I1
stRp2626
sg11
g5
((dp2627
Vtsinghua university
p2628
I2
sVibm
p2629
I1
sVcornell university
p2630
I1
sVelectronics and telecommunications research institute
p2631
I1
sVnanyang technological university
p2632
I1
sVnational university of singapore
p2633
I1
sVacademy of medical sciences united kingdom
p2634
I1
sVpeking university health science center
p2635
I1
sVharbin institute of technology
p2636
I1
stRp2637
ssVjarke wijk
p2638
(dp2639
g4
g5
((dtRp2640
sg8
g5
((dtRp2641
sg11
g5
((dtRp2642
ssVmichael wattenberg
p2643
(dp2644
g4
g5
((dp2645
I2604500435
I1
sI2596185182
I1
stRp2646
sg8
g5
((dp2647
NI2
stRp2648
sg11
g5
((dp2649
NI2
stRp2650
ssVdorothea wagner
p2651
(dp2652
g4
g5
((dp2653
I2140363637
I10
stRp2654
sg8
g5
((dp2655
I102335020
I10
stRp2656
sg11
g5
((dp2657
Vkarlsruhe institute of technology
p2658
I10
stRp2659
ssVjun sese
p2660
(dp2661
g4
g5
((dp2662
I2155062495
I10
stRp2663
sg8
g5
((dp2664
I114531698
I2
sI26120043
I3
sI74801974
I5
stRp2665
sg11
g5
((dp2666
Vochanomizu university
p2667
I3
sVtokyo institute of technology
p2668
I2
sVuniversity of tokyo
p2669
I5
stRp2670
ssVs{\u005c'e}bastien rufiange
p2671
(dp2672
g4
g5
((dtRp2673
sg8
g5
((dtRp2674
sg11
g5
((dtRp2675
ssVhoward goodell
p2676
(dp2677
g4
g5
((dp2678
I2031254715
I5
sI2310425207
I5
stRp2679
sg8
g5
((dp2680
I24603500
I4
sI1326498283
I5
sI133738476
I1
stRp2681
sg11
g5
((dp2682
Vuniversity of massachusetts lowell
p2683
I1
sVuniversity of massachusetts amherst
p2684
I4
sVfrench institute for research in computer science and automation
p2685
I5
stRp2686
ssVmathew staples
p2687
(dp2688
g4
g5
((dtRp2689
sg8
g5
((dtRp2690
sg11
g5
((dtRp2691
ssVnitesh chawla
p2692
(dp2693
g4
g5
((dtRp2694
sg8
g5
((dtRp2695
sg11
g5
((dtRp2696
ssVaaron quigley
p2697
(dp2698
g4
g5
((dtRp2699
sg8
g5
((dtRp2700
sg11
g5
((dtRp2701
ssVdong xu
p2702
(dp2703
g4
g5
((dp2704
I2094446072
I7
sI2583886488
I1
sI2552632756
I1
sI2340363748
I1
stRp2705
sg8
g5
((dp2706
I129604602
I3
sI157075465
I1
sI78577930
I1
sI181653535
I1
sI1290206253
I1
sI76835614
I1
sI172675005
I2
stRp2707
sg11
g5
((dp2708
Vuniversity of missouri
p2709
I1
sVsan diego supercomputer center
p2710
I1
sVnanyang technological university
p2711
I2
sVbristol myers squibb
p2712
I1
sVuniversity of sydney
p2713
I3
sVmicrosoft
p2714
I1
sVcolumbia university
p2715
I1
stRp2716
ssVdoug schaffer
p2717
(dp2718
g4
g5
((dp2719
I2161366586
I5
stRp2720
sg8
g5
((dp2721
I168635309
I5
stRp2722
sg11
g5
((dp2723
Vuniversity of calgary
p2724
I5
stRp2725
ssVkonstantin sokolov
p2726
(dp2727
g4
g5
((dp2728
I2181736270
I10
stRp2729
sg8
g5
((dp2730
I1343551460
I1
sI86519309
I9
stRp2731
sg11
g5
((dp2732
Vuniversity of texas at austin
p2733
I9
sVuniversity of texas md anderson cancer center
p2734
I1
stRp2735
ssVmartin mader
p2736
(dp2737
g4
g5
((dp2738
I2404254384
I1
sI2171769279
I9
stRp2739
sg8
g5
((dp2740
NI1
sI189712700
I9
stRp2741
sg11
g5
((dp2742
NI1
sVuniversity of konstanz
p2743
I9
stRp2744
ssVm. graham
p2745
(dp2746
g4
g5
((dtRp2747
sg8
g5
((dtRp2748
sg11
g5
((dtRp2749
ssVholger stitz
p2750
(dp2751
g4
g5
((dp2752
I2222993595
I9
stRp2753
sg8
g5
((dp2754
I121883995
I9
stRp2755
sg11
g5
((dp2756
Vjohannes kepler university of linz
p2757
I9
stRp2758
ssVpeter niermann
p2759
(dp2760
g4
g5
((dp2761
I2085414284
I3
stRp2762
sg8
g5
((dp2763
I8087733
I3
stRp2764
sg11
g5
((dp2765
Vuniversity of tubingen
p2766
I3
stRp2767
ssVandreas raue
p2768
(dp2769
g4
g5
((dp2770
I2163275849
I10
stRp2771
sg8
g5
((dp2772
I161046081
I10
stRp2773
sg11
g5
((dp2774
Vuniversity of freiburg
p2775
I10
stRp2776
ssVyujie liu
p2777
(dp2778
g4
g5
((dp2779
I2505913361
I1
sI2505751875
I1
sI2503660548
I2
sI2302891806
I2
sI2294573593
I1
sI2129216699
I1
sI2141903118
I2
stRp2780
sg8
g5
((dp2781
I1296604144
I2
sI130750295
I2
sNI1
sI1335321130
I1
sI156144747
I1
sI86519309
I2
sI19820366
I1
stRp2782
sg11
g5
((dp2783
Vchinese academy of sciences
p2784
I1
sVuniversity of texas at austin
p2785
I2
sVxinyang normal university
p2786
I2
sVchildren s hospital of philadelphia
p2787
I1
sNI1
sVmemorial hospital of south bend
p2788
I2
sVharbin medical university
p2789
I1
stRp2790
ssVdaniel archambault
p2791
(dp2792
g4
g5
((dp2793
I2017897688
I10
stRp2794
sg8
g5
((dp2795
I872287936
I1
sI84218800
I1
sI141945490
I3
sI100930933
I1
sI1326498283
I1
sI39586589
I3
stRp2796
sg11
g5
((dp2797
Vuniversity of british columbia
p2798
I3
sVl abri
p2799
I1
sVfrench institute for research in computer science and automation
p2800
I1
sVuniversity of california davis
p2801
I1
sVuniversity college dublin
p2802
I1
sVswansea university
p2803
I3
stRp2804
ssVpierre dragicevic
p2805
(dp2806
g4
g5
((dp2807
I89785269
I10
stRp2808
sg8
g5
((dp2809
I1326498283
I8
sI185261750
I2
stRp2810
sg11
g5
((dp2811
Vuniversity of toronto
p2812
I2
sVfrench institute for research in computer science and automation
p2813
I8
stRp2814
ssVli tan
p2815
(dp2816
g4
g5
((dtRp2817
sg8
g5
((dtRp2818
sg11
g5
((dtRp2819
ssVding-yi chen
p2820
(dp2821
g4
g5
((dtRp2822
sg8
g5
((dtRp2823
sg11
g5
((dtRp2824
ssVloic royer
p2825
(dp2826
g4
g5
((dtRp2827
sg8
g5
((dtRp2828
sg11
g5
((dtRp2829
ssVjian zhao
p2830
(dp2831
g4
g5
((dtRp2832
sg8
g5
((dtRp2833
sg11
g5
((dtRp2834
ssVmichael garland
p2835
(dp2836
g4
g5
((dp2837
I2182953115
I9
sI2568587278
I1
stRp2838
sg8
g5
((dp2839
I8098720
I1
sI74973139
I2
sI1304085615
I7
stRp2840
sg11
g5
((dp2841
Vdepartment of computer science university of illinois at urbana champaign
p2842
I1
sVcarnegie mellon university
p2843
I2
sVnvidia
p2844
I7
stRp2845
ssVjan baumbach
p2846
(dp2847
g4
g5
((dp2848
I2147014847
I10
stRp2849
sg8
g5
((dp2850
I177969490
I2
sI149899117
I6
sI20121455
I2
stRp2851
sg11
g5
((dp2852
Vuniversity of southern denmark
p2853
I2
sVbielefeld university
p2854
I2
sVmax planck society
p2855
I6
stRp2856
ssVbenjamin schmidt
p2857
(dp2858
g4
g5
((dtRp2859
sg8
g5
((dtRp2860
sg11
g5
((dtRp2861
ssVravin balakrishnan
p2862
(dp2863
g4
g5
((dp2864
I2130130894
I10
stRp2865
sg8
g5
((dp2866
I185261750
I10
stRp2867
sg11
g5
((dp2868
Vuniversity of toronto
p2869
I10
stRp2870
ssVfrancesco paduano
p2871
(dp2872
g4
g5
((dp2873
I1860310202
I10
stRp2874
sg8
g5
((dp2875
I39422238
I10
stRp2876
sg11
g5
((dp2877
Vuniversity of illinois at chicago
p2878
I10
stRp2879
ssVzeqian shen
p2880
(dp2881
g4
g5
((dp2882
I2503946360
I3
sI2146863387
I7
stRp2883
sg8
g5
((dp2884
I84218800
I3
sI1321826891
I3
sI55176711
I4
stRp2885
sg11
g5
((dp2886
Vuniversity of california davis
p2887
I3
sVuniversity of california
p2888
I4
sVebay
p2889
I3
stRp2890
ssVhelen purchase
p2891
(dp2892
g4
g5
((dtRp2893
sg8
g5
((dtRp2894
sg11
g5
((dtRp2895
ssVroberto ther\u005c'on
p2896
(dp2897
g4
g5
((dtRp2898
sg8
g5
((dtRp2899
sg11
g5
((dtRp2900
ssVmarie-france sagot
p2901
(dp2902
g4
g5
((dtRp2903
sg8
g5
((dtRp2904
sg11
g5
((dtRp2905
ssVcorinna vehlow
p2906
(dp2907
g4
g5
((dp2908
I2059869376
I10
stRp2909
sg8
g5
((dp2910
I100066346
I10
stRp2911
sg11
g5
((dp2912
Vuniversity of stuttgart
p2913
I10
stRp2914
ssVhans-j{o}rg schulz
p2915
(dp2916
g4
g5
((dtRp2917
sg8
g5
((dtRp2918
sg11
g5
((dtRp2919
ssVmarco siderius
p2920
(dp2921
g4
g5
((dp2922
I2078734240
I10
stRp2923
sg8
g5
((dp2924
I865915315
I10
stRp2925
sg11
g5
((dp2926
Vvu university amsterdam
p2927
I10
stRp2928
ssVchao zhang
p2929
(dp2930
g4
g5
((dp2931
I2158985936
I8
sI2432804233
I1
sI2442692725
I1
stRp2932
sg8
g5
((dp2933
I1344073410
I1
sI1302836756
I2
sI57206974
I1
sNI1
sI19820366
I1
sI205783295
I4
stRp2934
sg11
g5
((dp2935
Vhoward hughes medical institute
p2936
I1
sVchinese academy of sciences
p2937
I1
sVnew york university
p2938
I1
sNI1
sVcornell university
p2939
I4
sVplexxikon
p2940
I2
stRp2941
ssVye zhao
p2942
(dp2943
g4
g5
((dtRp2944
sg8
g5
((dtRp2945
sg11
g5
((dtRp2946
ssVs. chaturvedi
p2947
(dp2948
g4
g5
((dtRp2949
sg8
g5
((dtRp2950
sg11
g5
((dtRp2951
ssVmarkus brosch
p2952
(dp2953
g4
g5
((dp2954
I2087029465
I2
sI1878867961
I8
stRp2955
sg8
g5
((dp2956
NI2
sI87048295
I8
stRp2957
sg11
g5
((dp2958
Vwellcome trust
p2959
I8
sNI2
stRp2960
ssVural erdemir
p2961
(dp2962
g4
g5
((dp2963
I2007752261
I5
stRp2964
sg8
g5
((dp2965
NI5
stRp2966
sg11
g5
((dp2967
NI5
stRp2968
ssVgautam kumar
p2969
(dp2970
g4
g5
((dtRp2971
sg8
g5
((dtRp2972
sg11
g5
((dtRp2973
ssVbj{{o}}rn zimmer
p2974
(dp2975
g4
g5
((dtRp2976
sg8
g5
((dtRp2977
sg11
g5
((dtRp2978
ssVconglei shi
p2979
(dp2980
g4
g5
((dp2981
I2143837512
I10
stRp2982
sg8
g5
((dp2983
I1341412227
I4
sI200769079
I6
stRp2984
sg11
g5
((dp2985
Vhong kong university of science and technology
p2986
I6
sVibm
p2987
I4
stRp2988
ssVchristian partl
p2989
(dp2990
g4
g5
((dp2991
I1920782647
I10
stRp2992
sg8
g5
((dp2993
I4092182
I10
stRp2994
sg11
g5
((dp2995
Vgraz university of technology
p2996
I10
stRp2997
ssVfr\u005c'ed\u005c'eric lalanne
p2998
(dp2999
g4
g5
((dtRp3000
sg8
g5
((dtRp3001
sg11
g5
((dtRp3002
ssVdirk zeckzer
p3003
(dp3004
g4
g5
((dp3005
I285281174
I10
stRp3006
sg8
g5
((dp3007
I4923324
I1
sI926574661
I3
sI153267046
I6
stRp3008
sg11
g5
((dp3009
Vkaiserslautern university of technology
p3010
I6
sVleipzig university
p3011
I3
sVfraunhofer society
p3012
I1
stRp3013
ssVmartin pinzger
p3014
(dp3015
g4
g5
((dp3016
I335874646
I10
stRp3017
sg8
g5
((dp3018
I134023368
I2
sI98358874
I2
sI145847075
I1
sI202697423
I5
stRp3019
sg11
g5
((dp3020
Valpen adria universitat klagenfurt
p3021
I2
sVvienna university of technology
p3022
I1
sVuniversity of zurich
p3023
I5
sVdelft university of technology
p3024
I2
stRp3025
ssVanastasia bezerianos
p3026
(dp3027
g4
g5
((dp3028
I1993958020
I10
stRp3029
sg8
g5
((dp3030
I216852786
I2
sI1326498283
I1
sI185261750
I3
sI1294671590
I4
stRp3031
sg11
g5
((dp3032
Vuniversity of toronto
p3033
I3
sVecole centrale paris
p3034
I2
sVcentre national de la recherche scientifique
p3035
I4
sVfrench institute for research in computer science and automation
p3036
I1
stRp3037
ssVpeter fritz
p3038
(dp3039
g4
g5
((dp3040
I2553784994
I1
sI2303027459
I8
sI2238056718
I1
stRp3041
sg8
g5
((dp3042
NI1
sI223822909
I1
sI889804353
I7
sI8087733
I1
stRp3043
sg11
g5
((dp3044
NI1
sVbosch
p3045
I7
sVuniversity of tubingen
p3046
I1
sVheidelberg university
p3047
I1
stRp3048
ssVandreas kerren
p3049
(dp3050
g4
g5
((dp3051
I242315540
I10
stRp3052
sg8
g5
((dp3053
I223464139
I8
sI4923324
I1
sI875846653
I1
stRp3054
sg11
g5
((dp3055
Vmicro star international
p3056
I1
sVlinnaeus university
p3057
I8
sVfraunhofer society
p3058
I1
stRp3059
ssVgilles paris
p3060
(dp3061
g4
g5
((dp3062
I2177096404
I3
sI2129829198
I2
stRp3063
sg8
g5
((dp3064
I884165496
I2
sNI3
stRp3065
sg11
g5
((dp3066
NI3
sViresq
p3067
I2
stRp3068
ssVmichael krieger
p3069
(dp3070
g4
g5
((dtRp3071
sg8
g5
((dtRp3072
sg11
g5
((dtRp3073
ssVbasak alper
p3074
(dp3075
g4
g5
((dp3076
I2171099181
I10
stRp3077
sg8
g5
((dp3078
I154570441
I9
sI1290206253
I1
stRp3079
sg11
g5
((dp3080
Vmicrosoft
p3081
I1
sVuniversity of california santa barbara
p3082
I9
stRp3083
ssVfutai zou
p3084
(dp3085
g4
g5
((dp3086
I2224440558
I10
stRp3087
sg8
g5
((dp3088
I183067930
I10
stRp3089
sg11
g5
((dp3090
Vshanghai jiao tong university
p3091
I10
stRp3092
ssValexandru telea
p3093
(dp3094
g4
g5
((dp3095
I2080617136
I10
stRp3096
sg8
g5
((dp3097
I169381384
I3
sI83019370
I7
stRp3098
sg11
g5
((dp3099
Vuniversity of groningen
p3100
I3
sVeindhoven university of technology
p3101
I7
stRp3102
ssVmatthias reimann
p3103
(dp3104
g4
g5
((dp3105
I2223439120
I8
sI2460765842
I2
stRp3106
sg8
g5
((dp3107
I902798049
I2
sI78650965
I6
sI193291145
I2
stRp3108
sg11
g5
((dp3109
Vschiller international university
p3110
I2
sVbiotec
p3111
I2
sVdresden university of technology
p3112
I6
stRp3113
ssVandrea unger
p3114
(dp3115
g4
g5
((dp3116
I2114385021
I3
sI2164597103
I7
stRp3117
sg8
g5
((dp3118
I182212641
I2
sI4665924
I7
sI129774422
I1
stRp3119
sg11
g5
((dp3120
Vuniversity of vienna
p3121
I1
sVuniversity of rostock
p3122
I7
sVuniversity of salzburg
p3123
I2
stRp3124
ssVmarkus gross
p3125
(dp3126
g4
g5
((dtRp3127
sg8
g5
((dtRp3128
sg11
g5
((dtRp3129
ssVcarlos scheidegger
p3130
(dp3131
g4
g5
((dtRp3132
sg8
g5
((dtRp3133
sg11
g5
((dtRp3134
ssVchristophe hurter
p3135
(dp3136
g4
g5
((dp3137
I1770354363
I10
stRp3138
sg8
g5
((dp3139
I126595327
I3
sI17866349
I1
sI100296615
I6
stRp3140
sg11
g5
((dp3141
Vdepartment of trade and industry
p3142
I3
sVecole nationale de l aviation civile
p3143
I6
sVuniversity of toulouse
p3144
I1
stRp3145
ssVcarsten g{o}rg
p3146
(dp3147
g4
g5
((dtRp3148
sg8
g5
((dtRp3149
sg11
g5
((dtRp3150
ssVfalk schreiber
p3151
(dp3152
g4
g5
((dp3153
I2166292476
I10
stRp3154
sg8
g5
((dp3155
I315704651
I7
sI68956291
I3
stRp3156
sg11
g5
((dp3157
Vmartin luther university of halle wittenberg
p3158
I3
sVleibniz association
p3159
I7
stRp3160
ssVjonathan dubois
p3161
(dp3162
g4
g5
((dtRp3163
sg8
g5
((dtRp3164
sg11
g5
((dtRp3165
ssVjimeng sun
p3166
(dp3167
g4
g5
((dp3168
I2110385854
I10
stRp3169
sg8
g5
((dp3170
I1341412227
I4
sI130701444
I1
sI74973139
I4
sI200769079
I1
stRp3171
sg11
g5
((dp3172
Vgeorgia institute of technology
p3173
I1
sVcarnegie mellon university
p3174
I4
sVibm
p3175
I4
sVhong kong university of science and technology
p3176
I1
stRp3177
ssVflorian fittkau
p3178
(dp3179
g4
g5
((dp3180
I2600241064
I1
sI2602518772
I1
sI18143253
I8
stRp3181
sg8
g5
((dp3182
NI2
sI32021983
I8
stRp3183
sg11
g5
((dp3184
NI2
sVuniversity of kiel
p3185
I8
stRp3186
ssVfrank ham
p3187
(dp3188
g4
g5
((dp3189
I2214094224
I10
stRp3190
sg8
g5
((dp3191
I69678593
I6
sI97018004
I3
sI123387679
I1
stRp3192
sg11
g5
((dp3193
Vstanford university
p3194
I3
sVuppsala university
p3195
I1
sVcenter for turbulence research
p3196
I6
stRp3197
ssVjustin fagnan
p3198
(dp3199
g4
g5
((dp3200
I1727185924
I10
stRp3201
sg8
g5
((dp3202
I154425047
I10
stRp3203
sg11
g5
((dp3204
Vuniversity of alberta
p3205
I10
stRp3206
ssVtaoufiq dkaki
p3207
(dp3208
g4
g5
((dp3209
I2485012744
I1
sI199628434
I9
stRp3210
sg8
g5
((dp3211
I109963312
I1
sI197659720
I1
sI17866349
I7
sI1294671590
I1
stRp3212
sg11
g5
((dp3213
Vuniversity of tennessee at martin
p3214
I1
sVcentre national de la recherche scientifique
p3215
I1
sVinstitut universitaire de formation des maitres
p3216
I1
sVuniversity of toulouse
p3217
I7
stRp3218
ssVjevgenijs vihrovs
p3219
(dp3220
g4
g5
((dp3221
I2226162919
I2
stRp3222
sg8
g5
((dp3223
I121934539
I2
stRp3224
sg11
g5
((dp3225
Vinstitute of mathematics
p3226
I2
stRp3227
ssVchristopher mears
p3228
(dp3229
g4
g5
((dp3230
I2134789570
I10
stRp3231
sg8
g5
((dp3232
I56590836
I9
sI78570951
I1
stRp3233
sg11
g5
((dp3234
Vmonash university
p3235
I9
sVmonash university clayton campus
p3236
I1
stRp3237
ssVpetra neumann
p3238
(dp3239
g4
g5
((dp3240
I2150451489
I8
sI2464035423
I2
stRp3241
sg8
g5
((dp3242
I168635309
I8
sI196349391
I2
stRp3243
sg11
g5
((dp3244
Vuniversity of calgary
p3245
I8
sVuniversity of ulm
p3246
I2
stRp3247
ssVmichael woodward
p3248
(dp3249
g4
g5
((dtRp3250
sg8
g5
((dtRp3251
sg11
g5
((dtRp3252
ssVchris muelder
p3253
(dp3254
g4
g5
((dp3255
I1868676881
I10
stRp3256
sg8
g5
((dp3257
I84218800
I9
sI55176711
I1
stRp3258
sg11
g5
((dp3259
Vuniversity of california davis
p3260
I9
sVuniversity of california
p3261
I1
stRp3262
ssVgunnar klau
p3263
(dp3264
g4
g5
((dtRp3265
sg8
g5
((dtRp3266
sg11
g5
((dtRp3267
ssVkai xu
p3268
(dp3269
g4
g5
((dtRp3270
sg8
g5
((dtRp3271
sg11
g5
((dtRp3272
ssVshah humayoun
p3273
(dp3274
g4
g5
((dtRp3275
sg8
g5
((dtRp3276
sg11
g5
((dtRp3277
ssVjennifer gardy
p3278
(dp3279
g4
g5
((dtRp3280
sg8
g5
((dtRp3281
sg11
g5
((dtRp3282
ssVstijn dongen
p3283
(dp3284
g4
g5
((dtRp3285
sg8
g5
((dtRp3286
sg11
g5
((dtRp3287
ssVshelli dubs
p3288
(dp3289
g4
g5
((dp3290
I2042984139
I5
stRp3291
sg8
g5
((dp3292
I132125694
I5
stRp3293
sg11
g5
((dp3294
Valberta research council
p3295
I5
stRp3296
ssVbrendan madden
p3297
(dp3298
g4
g5
((dtRp3299
sg8
g5
((dtRp3300
sg11
g5
((dtRp3301
ssVa.g. melville
p3302
(dp3303
g4
g5
((dtRp3304
sg8
g5
((dtRp3305
sg11
g5
((dtRp3306
ssVjens timmer
p3307
(dp3308
g4
g5
((dp3309
I1987727939
I10
stRp3310
sg8
g5
((dp3311
I161046081
I9
sI223822909
I1
stRp3312
sg11
g5
((dp3313
Vheidelberg university
p3314
I1
sVuniversity of freiburg
p3315
I9
stRp3316
ssVandreas noack
p3317
(dp3318
g4
g5
((dp3319
I2603379713
I1
sI2261828260
I9
stRp3320
sg8
g5
((dp3321
I51783024
I9
sNI1
stRp3322
sg11
g5
((dp3323
NI1
sVbrandenburg university of technology
p3324
I9
stRp3325
ssVmountaz hasco{e}t
p3326
(dp3327
g4
g5
((dtRp3328
sg8
g5
((dtRp3329
sg11
g5
((dtRp3330
ssVxiaoyan fu
p3331
(dp3332
g4
g5
((dp3333
I2256397833
I4
sI2133314331
I3
sI2364275389
I1
sI2312124662
I1
sI2170807998
I1
stRp3334
sg8
g5
((dp3335
I82880672
I1
sI119454577
I3
sI129604602
I1
sI153374732
I4
sI204465549
I1
stRp3336
sg11
g5
((dp3337
Vuniversity of sydney
p3338
I1
sVliaoning normal university
p3339
I4
sVwashington university in st louis
p3340
I1
sVbeihang university
p3341
I1
sVnanjing agricultural university
p3342
I3
stRp3343
ssVangus forbes
p3344
(dp3345
g4
g5
((dp3346
I2294420700
I9
sI2557317501
I1
stRp3347
sg8
g5
((dp3348
I183935753
I5
sI171738146
I4
sI154570441
I1
stRp3349
sg11
g5
((dp3350
Vking s college london
p3351
I5
sVuniversity of california santa barbara
p3352
I1
sVflorence nightingale school of nursing and midwifery
p3353
I4
stRp3354
ssVkarsten klein
p3355
(dp3356
g4
g5
((dp3357
I2142182795
I10
stRp3358
sg8
g5
((dp3359
I129604602
I1
sI200332995
I2
sI56590836
I7
stRp3360
sg11
g5
((dp3361
Vuniversity of sydney
p3362
I1
sVmonash university
p3363
I7
sVtechnical university of dortmund
p3364
I2
stRp3365
ssVmichael kalkusch
p3366
(dp3367
g4
g5
((dp3368
I127886350
I4
stRp3369
sg8
g5
((dp3370
I4092182
I4
stRp3371
sg11
g5
((dp3372
Vgraz university of technology
p3373
I4
stRp3374
ssVbill andreopoulos
p3375
(dp3376
g4
g5
((dp3377
I61408089
I10
stRp3378
sg8
g5
((dp3379
I192455969
I6
sI78650965
I3
sI902798049
I1
stRp3380
sg11
g5
((dp3381
Vyork university
p3382
I6
sVbiotec
p3383
I1
sVdresden university of technology
p3384
I3
stRp3385
ssVernst kruijff
p3386
(dp3387
g4
g5
((dp3388
I2127188182
I10
stRp3389
sg8
g5
((dp3390
I864441908
I1
sI4923324
I1
sI4092182
I8
stRp3391
sg11
g5
((dp3392
Vgraz university of technology
p3393
I8
sVweimar institute
p3394
I1
sVfraunhofer society
p3395
I1
stRp3396
ssVbenjamin renoust
p3397
(dp3398
g4
g5
((dp3399
I2487777810
I1
sI2487922674
I1
sI1378565086
I5
sI2569745415
I3
stRp3400
sg8
g5
((dp3401
I872287936
I5
sNI1
sI1326498283
I1
sI184597095
I3
stRp3402
sg11
g5
((dp3403
Vl abri
p3404
I5
sNI1
sVnational institute of informatics
p3405
I3
sVfrench institute for research in computer science and automation
p3406
I1
stRp3407
ssVmatthew phillips
p3408
(dp3409
g4
g5
((dtRp3410
sg8
g5
((dtRp3411
sg11
g5
((dtRp3412
ssVhuamin qu
p3413
(dp3414
g4
g5
((dp3415
I2103237498
I10
stRp3416
sg8
g5
((dp3417
I200769079
I10
stRp3418
sg11
g5
((dp3419
Vhong kong university of science and technology
p3420
I10
stRp3421
ssVjacob k{o}hler
p3422
(dp3423
g4
g5
((dtRp3424
sg8
g5
((dtRp3425
sg11
g5
((dtRp3426
ssVanton enright
p3427
(dp3428
g4
g5
((dtRp3429
sg8
g5
((dtRp3430
sg11
g5
((dtRp3431
ssVbas cornelissen
p3432
(dp3433
g4
g5
((dtRp3434
sg8
g5
((dtRp3435
sg11
g5
((dtRp3436
ssVbettina speckmann
p3437
(dp3438
g4
g5
((dp3439
I2004349175
I10
stRp3440
sg8
g5
((dp3441
I83019370
I10
stRp3442
sg11
g5
((dp3443
Veindhoven university of technology
p3444
I10
stRp3445
ssVpushpa kumar
p3446
(dp3447
g4
g5
((dp3448
I2199454166
I10
stRp3449
sg8
g5
((dp3450
I162577319
I10
stRp3451
sg11
g5
((dp3452
Vuniversity of texas at dallas
p3453
I10
stRp3454
ssVduen chau
p3455
(dp3456
g4
g5
((dp3457
I2465072871
I1
stRp3458
sg8
g5
((dp3459
I130701444
I1
stRp3460
sg11
g5
((dp3461
Vgeorgia institute of technology
p3462
I1
stRp3463
ssVchristian klukas
p3464
(dp3465
g4
g5
((dp3466
I2083291279
I10
stRp3467
sg8
g5
((dp3468
I315704651
I10
stRp3469
sg11
g5
((dp3470
Vleibniz association
p3471
I10
stRp3472
ssVbobby-joe breitkreutz
p3473
(dp3474
g4
g5
((dtRp3475
sg8
g5
((dtRp3476
sg11
g5
((dtRp3477
ssVruoming jin
p3478
(dp3479
g4
g5
((dp3480
I2119237514
I10
stRp3481
sg8
g5
((dp3482
I149910238
I8
sI52357470
I2
stRp3483
sg11
g5
((dp3484
Vohio state university
p3485
I2
sVkent state university
p3486
I8
stRp3487
ssVcharles delisi
p3488
(dp3489
g4
g5
((dp3490
I79138794
I10
stRp3491
sg8
g5
((dp3492
I111088046
I9
sI90494735
I1
stRp3493
sg11
g5
((dp3494
Vboston university
p3495
I9
sVnational cancer institute
p3496
I1
stRp3497
ssValexander goesmann
p3498
(dp3499
g4
g5
((dp3500
I282996175
I10
stRp3501
sg8
g5
((dp3502
I200763008
I4
sI20121455
I6
stRp3503
sg11
g5
((dp3504
Vuniversity of giessen
p3505
I4
sVbielefeld university
p3506
I6
stRp3507
ssVjiayi liu
p3508
(dp3509
g4
g5
((dp3510
I2502257060
I1
sI2297441997
I1
sI2128926424
I1
sI2158539795
I1
sI2498537812
I1
sI2501027224
I1
sI2439410483
I1
sI2294411708
I1
sI2575928029
I1
sI2525490078
I1
stRp3511
sg8
g5
((dp3512
I99065089
I1
sI47720641
I1
sI204983213
I1
sI20231570
I1
sI180585399
I1
sNI3
sI158842170
I1
sI67415387
I1
stRp3513
sg11
g5
((dp3514
Vtsinghua university
p3515
I1
sVpeking university
p3516
I1
sVchongqing university
p3517
I1
sVhuazhong university of science and technology
p3518
I1
sNI3
sVdalian institute of chemical physics
p3519
I1
sVlancaster university
p3520
I1
sVharbin institute of technology
p3521
I1
stRp3522
ssVhong zhou
p3523
(dp3524
g4
g5
((dp3525
I2434004064
I1
sI2476340036
I3
sI2569113109
I1
sI2485926822
I1
sI2434196695
I1
sI2442748808
I1
sI2248980825
I2
stRp3526
sg8
g5
((dp3527
I84218800
I3
sI12912129
I1
sI64558907
I1
sI200769079
I1
sI1314596251
I1
sI1289490764
I2
sI157773358
I1
stRp3528
sg11
g5
((dp3529
Vcenters for disease control and prevention
p3530
I2
sVsun yat sen university
p3531
I1
sVnortheastern university
p3532
I1
sVuniversity of california davis
p3533
I3
sVallen institute for brain science
p3534
I1
sVhong kong university of science and technology
p3535
I1
sVmillennium pharmaceuticals
p3536
I1
stRp3537
ssVjohannes schultz
p3538
(dp3539
g4
g5
((dp3540
I2222148520
I1
sI2132495444
I9
stRp3541
sg8
g5
((dp3542
I190082696
I1
sI45129253
I1
sI153267046
I1
sI149899117
I7
stRp3543
sg11
g5
((dp3544
Vkaiserslautern university of technology
p3545
I1
sVdurham university
p3546
I1
sVmax planck society
p3547
I7
sVuniversity college london
p3548
I1
stRp3549
ssVmichael balzer
p3550
(dp3551
g4
g5
((dp3552
I1968041922
I10
stRp3553
sg8
g5
((dp3554
I189712700
I10
stRp3555
sg11
g5
((dp3556
Vuniversity of konstanz
p3557
I10
stRp3558
ssVromain bourqui
p3559
(dp3560
g4
g5
((dp3561
I2019835715
I10
stRp3562
sg8
g5
((dp3563
I872287936
I6
sI83019370
I1
sI1294671590
I3
stRp3564
sg11
g5
((dp3565
Vl abri
p3566
I6
sVcentre national de la recherche scientifique
p3567
I3
sVeindhoven university of technology
p3568
I1
stRp3569
ssVmarcus raitner
p3570
(dp3571
g4
g5
((dp3572
I115793380
I10
stRp3573
sg8
g5
((dp3574
I186354981
I10
stRp3575
sg11
g5
((dp3576
Vuniversity of passau
p3577
I10
stRp3578
ssVtakao ito
p3579
(dp3580
g4
g5
((dp3581
I2293862752
I1
sI2586902481
I1
sI2291470917
I2
sI2303461400
I1
sI2528029832
I1
sI2309073144
I1
sI2189236414
I3
stRp3582
sg8
g5
((dp3583
I40677808
I1
sI190930483
I1
sNI3
sI159601577
I1
sI173865709
I1
sI190805021
I3
stRp3584
sg11
g5
((dp3585
Vgifu pharmaceutical university
p3586
I1
sVkyoto prefectural university of medicine
p3587
I1
sVkyorin university
p3588
I1
sVjapan tobacco
p3589
I1
sNI3
sVwakayama medical university
p3590
I3
stRp3591
ssVathanasios theocharidis
p3592
(dp3593
g4
g5
((dp3594
I1824918096
I3
sI2563631585
I1
sI2563649653
I1
sI2050030742
I5
stRp3595
sg8
g5
((dp3596
I72702400
I1
sI98677209
I1
sI133960621
I1
sI240339774
I2
sI200777214
I5
stRp3597
sg11
g5
((dp3598
Vroyal dick school of veterinary studies
p3599
I2
sVathens state university
p3600
I1
sVuniversity of edinburgh
p3601
I1
sVnational and kapodistrian university of athens
p3602
I5
sVthe roslin institute
p3603
I1
stRp3604
ssVxiaoru yuan
p3605
(dp3606
g4
g5
((dp3607
I2147723296
I10
stRp3608
sg8
g5
((dp3609
I20231570
I10
stRp3610
sg11
g5
((dp3611
Vpeking university
p3612
I10
stRp3613
ssVlyn bartram
p3614
(dp3615
g4
g5
((dp3616
I2119786465
I1
sI2153175125
I9
stRp3617
sg8
g5
((dp3618
I141945490
I1
sI18014758
I9
stRp3619
sg11
g5
((dp3620
Vuniversity of british columbia
p3621
I1
sVsimon fraser university
p3622
I9
stRp3623
ssVfabrizio montecchiani
p3624
(dp3625
g4
g5
((dp3626
I282852810
I10
stRp3627
sg8
g5
((dp3628
I27483092
I10
stRp3629
sg11
g5
((dp3630
Vuniversity of perugia
p3631
I10
stRp3632
ssVm.a. westenberg
p3633
(dp3634
g4
g5
((dtRp3635
sg8
g5
((dtRp3636
sg11
g5
((dtRp3637
ssVchin-lung chang
p3638
(dp3639
g4
g5
((dtRp3640
sg8
g5
((dtRp3641
sg11
g5
((dtRp3642
ssVjonathan mcpherson
p3643
(dp3644
g4
g5
((dp3645
I2105866264
I2
sI2232471284
I2
sI2549522852
I1
sI2524753518
I1
sI2098424143
I2
stRp3646
sg8
g5
((dp3647
I84218800
I2
sNI6
stRp3648
sg11
g5
((dp3649
Vuniversity of california davis
p3650
I2
sNI6
stRp3651
ssValexander r{u}egg
p3652
(dp3653
g4
g5
((dtRp3654
sg8
g5
((dtRp3655
sg11
g5
((dtRp3656
ssVtamara munzner
p3657
(dp3658
g4
g5
((dp3659
I544170546
I10
stRp3660
sg8
g5
((dp3661
I141945490
I8
sI97018004
I2
stRp3662
sg11
g5
((dp3663
Vuniversity of british columbia
p3664
I8
sVstanford university
p3665
I2
stRp3666
ssVtakafumi saito
p3667
(dp3668
g4
g5
((dp3669
I2531112133
I1
sI2164618823
I9
stRp3670
sg8
g5
((dp3671
I112524849
I6
sI92614990
I2
sI74801974
I1
sNI1
stRp3672
sg11
g5
((dp3673
NI1
sVtokyo university of agriculture and technology
p3674
I2
sVyamagata university
p3675
I6
sVuniversity of tokyo
p3676
I1
stRp3677
ssVg. marai
p3678
(dp3679
g4
g5
((dtRp3680
sg8
g5
((dtRp3681
sg11
g5
((dtRp3682
ssVkim marriott
p3683
(dp3684
g4
g5
((dp3685
I2139022045
I10
stRp3686
sg8
g5
((dp3687
I165779595
I1
sI56590836
I6
sI78570951
I3
stRp3688
sg11
g5
((dp3689
Vmonash university
p3690
I6
sVuniversity of melbourne
p3691
I1
sVmonash university clayton campus
p3692
I3
stRp3693
ssVkaty b{o}rner
p3694
(dp3695
g4
g5
((dtRp3696
sg8
g5
((dtRp3697
sg11
g5
((dtRp3698
ssVjui-hung hung
p3699
(dp3700
g4
g5
((dtRp3701
sg8
g5
((dtRp3702
sg11
g5
((dtRp3703
ssVyang xiang
p3704
(dp3705
g4
g5
((dp3706
I2427191634
I1
sI2540637924
I9
stRp3707
sg8
g5
((dp3708
I881766915
I1
sI74899385
I2
sI1344073410
I1
sI149704539
I6
stRp3709
sg11
g5
((dp3710
Vcentral queensland university
p3711
I2
sVhoward hughes medical institute
p3712
I1
sVnanjing university
p3713
I1
sVdeakin university
p3714
I6
stRp3715
ssVagustrisnajaya kwee
p3716
(dp3717
g4
g5
((dtRp3718
sg8
g5
((dtRp3719
sg11
g5
((dtRp3720
ssVpeter karp
p3721
(dp3722
g4
g5
((dtRp3723
sg8
g5
((dtRp3724
sg11
g5
((dtRp3725
ssVkozo sugiyama
p3726
(dp3727
g4
g5
((dp3728
I2186272345
I10
stRp3729
sg8
g5
((dp3730
I177738480
I7
sI880766802
I1
sI2252096349
I2
stRp3731
sg11
g5
((dp3732
Vjapan advanced institute of science and technology
p3733
I7
sVfujitsu
p3734
I2
sVgraduate school usa
p3735
I1
stRp3736
ssVyaniv frishman
p3737
(dp3738
g4
g5
((dp3739
I2490921817
I1
sI2278151068
I2
sI2048331574
I6
sI2342689167
I1
stRp3740
sg8
g5
((dp3741
NI4
sI174306211
I6
stRp3742
sg11
g5
((dp3743
NI4
sVtechnion israel institute of technology
p3744
I6
stRp3745
ssVisao miyamoto
p3746
(dp3747
g4
g5
((dp3748
I2347160929
I1
sI2434291842
I5
sI2011508006
I4
stRp3749
sg8
g5
((dp3750
I118347220
I1
sI159385669
I5
sI1331384533
I4
stRp3751
sg11
g5
((dp3752
Vuniversity of hawaii
p3753
I4
sVchiba university
p3754
I5
sVnec
p3755
I1
stRp3756
ssVoliver kohlbacher
p3757
(dp3758
g4
g5
((dp3759
I178069865
I10
stRp3760
sg8
g5
((dp3761
I8087733
I10
stRp3762
sg11
g5
((dp3763
Vuniversity of tubingen
p3764
I10
stRp3765
ssVsalvatore romeo
p3766
(dp3767
g4
g5
((dp3768
I2210767722
I9
sI2600399551
I1
stRp3769
sg8
g5
((dp3770
I121797337
I9
sI45204951
I1
stRp3771
sg11
g5
((dp3772
Vleiden university
p3773
I9
sVuniversity of calabria
p3774
I1
stRp3775
ssVdiane felmlee
p3776
(dp3777
g4
g5
((dtRp3778
sg8
g5
((dtRp3779
sg11
g5
((dtRp3780
ssVfrancois queyroi
p3781
(dp3782
g4
g5
((dp3783
I2503256170
I1
sI2012301547
I2
sI2535913967
I7
stRp3784
sg8
g5
((dp3785
I872287936
I2
sI204730241
I1
sI1294671590
I7
stRp3786
sg11
g5
((dp3787
Vl abri
p3788
I2
sVcentre national de la recherche scientifique
p3789
I7
sVuniversity of paris
p3790
I1
stRp3791
ssVstephan philippi
p3792
(dp3793
g4
g5
((dp3794
I2103406372
I10
stRp3795
sg8
g5
((dp3796
I20121455
I10
stRp3797
sg11
g5
((dp3798
Vbielefeld university
p3799
I10
stRp3800
ssVmichael specht
p3801
(dp3802
g4
g5
((dp3803
I2006871570
I4
sI2409184995
I1
sI2070045002
I3
sI2518995965
I2
stRp3804
sg8
g5
((dp3805
I1320897668
I3
sI202367325
I4
sI1294671590
I2
sI20121455
I1
stRp3806
sg11
g5
((dp3807
Voffis
p3808
I4
sVcentre national de la recherche scientifique
p3809
I2
sVmax planck institute of psychiatry
p3810
I3
sVbielefeld university
p3811
I1
stRp3812
ssVmike tyers
p3813
(dp3814
g4
g5
((dp3815
I1896730060
I10
stRp3816
sg8
g5
((dp3817
I1324220072
I2
sI70931966
I6
sI185261750
I1
sI1291836623
I1
stRp3818
sg11
g5
((dp3819
Vuniversity of toronto
p3820
I1
sVmount sinai hospital
p3821
I2
sVmount sinai hospital toronto
p3822
I1
sVuniversite de montreal
p3823
I6
stRp3824
ssVbahador saket
p3825
(dp3826
g4
g5
((dp3827
I2224044904
I1
sI2599966056
I3
sI2013181858
I6
stRp3828
sg8
g5
((dp3829
I165932596
I1
sI138006243
I6
sI130701444
I3
stRp3830
sg11
g5
((dp3831
Vgeorgia institute of technology
p3832
I3
sVnational university of singapore
p3833
I1
sVuniversity of arizona
p3834
I6
stRp3835
ssVoliver deussen
p3836
(dp3837
g4
g5
((dp3838
I74604451
I10
stRp3839
sg8
g5
((dp3840
I95793202
I1
sI189712700
I7
sI78650965
I2
stRp3841
sg11
g5
((dp3842
Votto von guericke university magdeburg
p3843
I1
sVuniversity of konstanz
p3844
I7
sVdresden university of technology
p3845
I2
stRp3846
ssVandreas gerasch
p3847
(dp3848
g4
g5
((dp3849
I264884574
I9
sI2564642735
I1
stRp3850
sg8
g5
((dp3851
NI1
sI8087733
I7
sI91712215
I2
stRp3852
sg11
g5
((dp3853
NI1
sVuniversity of tubingen
p3854
I7
sVsaarland university
p3855
I2
stRp3856
ssVmathias pohl
p3857
(dp3858
g4
g5
((dp3859
I2297507796
I7
sI2490658382
I3
stRp3860
sg8
g5
((dp3861
I91712215
I1
sI167576493
I3
sI89864525
I6
stRp3862
sg11
g5
((dp3863
Vcolorado school of mines
p3864
I3
sVuniversity of trier
p3865
I6
sVsaarland university
p3866
I1
stRp3867
ssVkurt zatloukal
p3868
(dp3869
g4
g5
((dp3870
I1833946218
I10
stRp3871
sg8
g5
((dp3872
I202276237
I10
stRp3873
sg11
g5
((dp3874
Vmedical university of graz
p3875
I10
stRp3876
ssVzhiyuan lin
p3877
(dp3878
g4
g5
((dp3879
I2493594944
I1
sI2477733314
I1
sI2488739449
I1
sI2144984370
I3
sI2573972956
I2
sI2238013805
I2
stRp3880
sg8
g5
((dp3881
I130828816
I1
sI20231570
I1
sI24943067
I2
sI130701444
I3
sI859038795
I1
sI55732556
I2
stRp3882
sg11
g5
((dp3883
Vpeking university
p3884
I1
sVgeorgia institute of technology
p3885
I3
sVfudan university
p3886
I2
sVuniversity of leeds
p3887
I1
sVvirginia tech
p3888
I1
sVarizona state university
p3889
I2
stRp3890
ssVivan lisitsyn
p3891
(dp3892
g4
g5
((dtRp3893
sg8
g5
((dtRp3894
sg11
g5
((dtRp3895
ssVstephan diehl
p3896
(dp3897
g4
g5
((dp3898
I2578943784
I1
sI2064750564
I9
stRp3899
sg8
g5
((dp3900
NI1
sI91712215
I1
sI89864525
I7
sI84470341
I1
stRp3901
sg11
g5
((dp3902
NI1
sVuniversity of trier
p3903
I7
sVthe catholic university of america
p3904
I1
sVsaarland university
p3905
I1
stRp3906
ssVmichael burch
p3907
(dp3908
g4
g5
((dp3909
I2530731235
I10
stRp3910
sg8
g5
((dp3911
I100066346
I9
sI9364636
I1
stRp3912
sg11
g5
((dp3913
Vsalisbury university
p3914
I1
sVuniversity of stuttgart
p3915
I9
stRp3916
ssVjan hasenauer
p3917
(dp3918
g4
g5
((dp3919
I1898366314
I10
stRp3920
sg8
g5
((dp3921
I100066346
I10
stRp3922
sg11
g5
((dp3923
Vuniversity of stuttgart
p3924
I10
stRp3925
ssVioannis tollis
p3926
(dp3927
g4
g5
((dtRp3928
sg8
g5
((dtRp3929
sg11
g5
((dtRp3930
ssVmichael stal
p3931
(dp3932
g4
g5
((dp3933
I2170343445
I10
stRp3934
sg8
g5
((dp3935
I1325886976
I10
stRp3936
sg11
g5
((dp3937
Vsiemens
p3938
I10
stRp3939
ssVsamuel gratzl
p3940
(dp3941
g4
g5
((dp3942
I1997569821
I10
stRp3943
sg8
g5
((dp3944
I121883995
I10
stRp3945
sg11
g5
((dp3946
Vjohannes kepler university of linz
p3947
I10
stRp3948
ssVflorian foerster
p3949
(dp3950
g4
g5
((dp3951
I2111531089
I5
sI2581954531
I4
sI2580133861
I1
stRp3952
sg8
g5
((dp3953
I8204097
I4
sI130701444
I5
sNI1
stRp3954
sg11
g5
((dp3955
Vgeorgia institute of technology
p3956
I5
sVludwig maximilian university of munich
p3957
I4
sNI1
stRp3958
ssVyu-ru lin
p3959
(dp3960
g4
g5
((dtRp3961
sg8
g5
((dtRp3962
sg11
g5
((dtRp3963
ss.